WAR         08/13/80    20:30:38    PDP-9/GRAPHIC II VERSION OF SPACEWAR                                              [INDEX]       

            LINE    TITLE:      SUBTITLE:                                                                           PAGE

            3       PDP-9/GRAPHIC II VERSION OF SPACEWAR                                                              1     
            4                   ASSEMBLY CONTROL                                                                      2     
            28                  LOW CORE DEFINITIONS -- RESERVED ADDRESSES -- HARDWARE                                3     
            79                  LOW CORE DEFINITIONS -- RESERVED ADDRESSES -- SOFTWARE -- RESTART ADDRESSES           4     
            95                  LOW CORE DEFINITIONS -- RESERVED ADDRESSES -- SOFTWARE -- DISABLE  TABLE              5     
            139                 LOW CORE DEFINITIONS -- RESERVED ADDRESSES -- SOFTWARE -- HANDICAP TABLE              6     
            185                 LOW CORE DEFINITIONS -- RESERVED ADDRESSES -- SOFTWARE -- DISABLE  TABLE -- 1         7     
            228                 LOW CORE DEFINITIONS -- RESERVED ADDRESSES -- SOFTWARE -- HANDICAP TABLE -- 1         8     
            274                 LOW CORE DEFINITIONS -- RESERVED ADDRESSES -- SOFTWARE -- DISABLE  TABLE -- 2         9     
            317                 LOW CORE DEFINITIONS -- RESERVED ADDRESSES -- SOFTWARE -- HANDICAP TABLE -- 2        10     
            363                 LOW CORE DEFINITIONS -- RESERVED ADDRESSES -- SOFTWARE -- DISABLE  TABLE -- 3        11     
            406                 LOW CORE DEFINITIONS -- RESERVED ADDRESSES -- SOFTWARE -- HANDICAP TABLE -- 3        12     
            452                 LOW CORE DEFINITIONS -- RESERVED ADDRESSES -- SOFTWARE -- DISABLE  TABLE             13     
            495                 LOW CORE DEFINITIONS -- RESERVED ADDRESSES -- SOFTWARE -- HANDICAP TABLE             14     
            541                 INITIALIZATION ROUTINES -- START OF NEW PROGRAM                                      15     
            657                 INITIALIZATION ROUTINES -- START OF NEW GAME                                         18     
            878                 OBJECT MANAGEMENT ROUTINES -- COLLISION CHECKING -- INITIALIZATION                   23     
            1044                OBJECT MANAGEMENT ROUTINES -- COLLISION CHECKING                                     28     
            1310                OBJECT MANAGEMENT ROUTINES -- EXPLOSIONS                                             35     
            1352                BULLET MANAGEMENT ROUTINE                                                            36     
            1385                SUN    MANAGEMENT ROUTINE                                                            37     
            1430                STAR   MANAGEMENT ROUTINE                                                            38     
            1555                SHIP   MANAGEMENT ROUTINES                                                           41     
            1598                SHIP   MANAGEMENT ROUTINES -- WARP                                                   42     
            1713                SHIP   MANAGEMENT ROUTINES -- INVISIBILITY                                           46     
            1734                SHIP   MANAGEMENT ROUTINES -- CONTROL RESTORATION                                    47     
            1794                SHIP   MANAGEMENT ROUTINES -- TURNING                                                49     
            1840                SHIP   MANAGEMENT ROUTINES -- THRUSTING                                              50     
            1908                SHIP   MANAGEMENT ROUTINES -- FIRING BULLETS                                         52     
            1995                SHIP   MANAGEMENT ROUTINES                                                           54     
            2043                SHIP   MANAGEMENT ROUTINES -- DRAWING THE PICTURE                                    55     
            2333                SHIP   MANAGEMENT ROUTINES -- DRAWING THE PICTURE -- SHIPS                           63     
            2382                SHIP   MANAGEMENT ROUTINES -- DRAWING THE PICTURE -- SHIPS -- LONG, SLIM SHIP        64     
            2419                SHIP   MANAGEMENT ROUTINES -- DRAWING THE PICTURE -- SHIPS -- SHORT, FAT SHIP        65     
            2454                SHIP   MANAGEMENT ROUTINES -- DRAWING THE PICTURE -- SHIPS -- U.S.S. ENTERPRISE      66     
            2497                SHIP   MANAGEMENT ROUTINES -- DRAWING THE PICTURE -- SHIPS -- DISCOVERY              67     
            2548                OBJECT MANAGEMENT SUBROUTINES -- CALCULATION -- GRAVITY EFFECT                       68     
            2691                OBJECT MANAGEMENT SUBROUTINES -- CALCULATION -- SQUARE ROOT                          71     
            2739                OBJECT MANAGEMENT SUBROUTINES -- CALCULATION -- SINE AND COSINE                      72     
            2858                MISCELLANEOUS COMMON SUBROUTINES -- PSEUDO-RANDOM NUMBER GENERATION                  75     
            2931                MISCELLANEOUS COMMON SUBROUTINES -- SCOPE DRAWING                                    77     
            2976                MISCELLANEOUS COMMON SUBROUTINES -- PUSHBUTTON INTERFACE                             78     
            3029                PROGRAM INTERRUPT SERVICE ROUTINES -- KEYBOARD SERVICE                               79     
            3070                PROGRAM INTERRUPT SERVICE ROUTINES                                                   80     
            3121                HIGH CORE DEFINITIONS                                                                81     
            3174                HIGH CORE DEFINITIONS -- OBJECT DEFINITION TABLE -- OBJECT DEFINITIONS               82     
            3220                HIGH CORE DEFINITIONS -- OBJECT DEFINITION TABLE -- SHIP DEFINITIONS                 83     
            3320                HIGH CORE DEFINITIONS -- OBJECT DEFINITION TABLE -- POINTERS                         85     
            3359                HIGH CORE DEFINITIONS -- LAW/XCT TABLE                                               86     
            3493                ASSEMBLY CONTROL                                                                     89     
WAR         08/13/80    20:30:38    PDP-9/GRAPHIC II VERSION OF SPACEWAR                                            PAGE   1

                                            ASSEMBLY CONTROL

                    5               .PCC    ON
                    6                       
                    7               .PMC    ON
                    8                       
                    9               .DET    ON
                    10                      
                    11              .REF    LNRSM,ON
                    12                      
                    13              .REFMA  ON
                    14                      
                    15              .LIST   ON
                    16                      
                    17              .CRSM   ON
                    18                      
                    19                      
        000003      20      THREE   .EQU    3
                    21                      
                    22                      
        000003      23      NUMSHP  .EQU    3               THREE SHIPS
                    24                      
        000025      25      NUMBLT  .EQU    21.             TWENTY ONE BULLETS
                    26                      
        000030      27      NUMOBJ  .EQU    NUMSHP+NUMBLT   NUMBER OF OBJECTS IS SUM OF ABOVE
WAR         08/13/80    20:30:38    PDP-9/GRAPHIC II VERSION OF SPACEWAR                                            PAGE   2

                                            LOW CORE DEFINITIONS -- RESERVED ADDRESSES -- HARDWARE

        000000      29              .LOC    0
                    30      *       
                    31      *       
                    32      *       PI SUBROUTINE
                    33      *       
    000000  740040  34      PI      XX      
    000001  603452  35              JMP     INT             JUMP TO INTERUPT HANDLING ROUTINE
                    36      *       
                    37      *       
                    38      *       RESERVED WORDS
                    39      *       
        000002      40              .BLOCK  6-2+1           RESERVED FOR PDP-9 SYSTEM PROGRAMS
                    41      *       
                    42      *       
                    43      *       CLOCK
                    44      *       
        000007      45      CLOCK   .BLOCK  1               STORES REAL-TIME CLOCK COUNT
                    46      *       
                    47      *       
                    48      *       AUTOINDEX REGISTERS
                    49      *       
        000010      50      X0      .BLOCK  1               AUTOINDEX REGISTER 0
        000011      51      X1      .BLOCK  1               AUTOINDEX REGISTER 1
        000012      52      X2      .BLOCK  1               AUTOINDEX REGISTER 2
        000013      53      X3      .BLOCK  1               AUTOINDEX REGISTER 3
        000014      54      X4      .BLOCK  1               AUTOINDEX REGISTER 4
        000015      55      X5      .BLOCK  1               AUTOINDEX REGISTER 5
        000016      56      X6      .BLOCK  1               AUTOINDEX REGISTER 6
        000017      57      X7      .BLOCK  1               AUTOINDEX REGISTER 7
                    58      *       
                    59      *       
                    60      *       CAL SUBROUTINE
                    61      *       
    000020  740040  62              XX      
    000021  740040  63              HLT                     HALT PROGRAM IMMEDIATELY UPON EXECUTION OF A CAL
                    64      *       
                    65      *       
                    66      *       RESERVED WORDS
                    67      *       
        000022      68              .BLOCK  27-22+1         RESERVED FOR PDP-9 SYSTEM PROGRAMS
                    69      *       
                    70      *       
                    71      *       FOUR PAIRS OF WORD COUNTER/CURRENT ADDRESS REGISTERS FOR USE WITH DATA CHANNELS 0-3
                    72      *       
        000030      73              .BLOCK  4*2
                    74      *       
                    75      *       
                    76      *       API ROUTINES
                    77      *       
        000040      78              .BLOCK  32.
WAR         08/13/80    20:30:38    PDP-9/GRAPHIC II VERSION OF SPACEWAR                                            PAGE   3

                                            LOW CORE DEFINITIONS -- RESERVED ADDRESSES -- SOFTWARE -- RESTART ADDRESSES

                    80      *       
                    81      *       
                    82      *       RESTART AT LOCATION 100 FOR NORMAL (?) SPACEWAR
                    83      *       
    000100  600700  84              JMP     AGAIN
                    85      *       
                    86      *       
                    87      *       RESTART AT LOCATION 101 FOR RANDOM PLACEMENT OF THE SUN
                    88      *       
    000101  603312  89              JMP     RNDSUN
                    90      *       
                    91      *       
                    92      *       RESTART AT LOCATION 102 TO PUT THE SUN BACK IN THE CENTER OF THE SCREEN
                    93      *       
    000102  603327  94              JMP     CENTER
WAR         08/13/80    20:30:38    PDP-9/GRAPHIC II VERSION OF SPACEWAR                                            PAGE   4

                                            LOW CORE DEFINITIONS -- RESERVED ADDRESSES -- SOFTWARE -- DISABLE  TABLE

        000120      96              .LOC    120             ESTABLISH CANONICAL LOCATION FOR PATCHING FACILITY
                    97                      
                    98              .HEAD   X
                    99                      
        000120      100     DTAB    ...     
                    101                     
                    102     *       
                    103     *       
                    104     *       DESTROY SHIP TOTALLY
                    105     *       
    000120  777777  106             777777                  DESTROY SHIP TOTALLY
    000121  777777  107             777777                  DESTROY SHIP TOTALLY
                    108     *       
                    109     *       
                    110     *       DISABLE BULLET-FIRING
                    111     *       
    000122  020000  112             020000                  DISABLE BULLET-FIRING
    000123  020000  113             020000                  DISABLE BULLET-FIRING
    000124  020000  114             020000                  DISABLE BULLET-FIRING
                    115     *       
                    116     *       
                    117     *       
                    118     *       DISABLE THRUST
                    119     *       
    000125  040000  120             040000                  DISABLE THRUST
    000126  040000  121             040000                  DISABLE THRUST
    000127  040000  122             040000                  DISABLE THRUST
                    123     *       
                    124     *       
                    125     *       DISABLE LEFT TURN
                    126     *       
    000130  200000  127             200000                  DISABLE LEFT TURN
    000131  200000  128             200000                  DISABLE LEFT TURN
    000132  200000  129             200000                  DISABLE LEFT TURN
    000133  201000  130             201000                  DISABLE LEFT TURN; TURN ON ANGULAR MOMENTUM
                    131     *       
                    132     *       
                    133     *       DISABLE RIGHT TURN
                    134     *       
    000134  100000  135             100000                  DISABLE RIGHT TURN
    000135  100000  136             100000                  DISABLE RIGHT TURN
    000136  100000  137             100000                  DISABLE RIGHT TURN
    000137  101000  138             101000                  DISABLE RIGHT TURN; TURN ON ANGULAR MOMENTUM
WAR         08/13/80    20:30:38    PDP-9/GRAPHIC II VERSION OF SPACEWAR                                            PAGE   5

                X                           LOW CORE DEFINITIONS -- RESERVED ADDRESSES -- SOFTWARE -- HANDICAP TABLE

        000140      140             .LOC    140             ESTABLISH CANONICAL LOCATION FOR PATCHING FACILITY
                    141                     
                    142             .HEAD   X
                    143                     
    000140  000004  144     GRAVT   4                       GRAVITY CONSTANT
                    145                     
    000141  660513  146     THRUS   LRSS    11.             THRUST FACTOR
                    147                     
    000142  000060  148     ROLL    48.                     AMOUNT OF ROLL FORCE
                    149                     
    000143  774777  150     FUEL    -1536.-1                FUEL SUPPLY FOR SHIPS
                    151                     
    000144  777737  152     BLNUM   -32.-1                  NUMBER OF BULLETS PER SHIP PER GAME
                    153                     
    000145  660502  154     BLVEL   LRSS    2               BULLET VELOCITY FACTOR
                    155                     
    000146  777577  156     BLTIM   -128.-1                 AMOUNT OF TIME THAT A BULLET LASTS
                    157                     
    000147  777763  158     BLINT   -12.-1                  INTERVAL THAT BULLETS CAN BE SHOT
                    159                     
    000150  772777  160     SUNSZ   -2560.-1                SIZE OF THE SUN
                    161                     
    000151  773777  162     SHPSZ   -2048.-1                SIZE OF THE SHIPS AND BULLETS
                    163                     
    000152  777677  164     WTIME   -64.-1                  AMOUNT OF TIME THAT A WARP LASTS
                    165                     
    000153  777637  166     STIME   -96.-1                  AMOUNT OF TIME THAT A WARP STAR LASTS
                    167                     
    000154  777577  168     DTIME   -128.-1                 AMOUNT OF TIME UNTIL NEXT POSSIBLE WARP
                    169                     
    000155  660500  170     WAREA   LRSS    0               HOW FAR FROM WHERE YOU WARP DO YOU COME BACK?
                    171                     
    000156  660505  172     WVELO   LRSS    5               HOW FAST ARE YOU GOING WHEN YOU COME BACK?
                    173                     
    000157  040000  174     WFACT   040000                  WARP FACTOR
                    175                     
    000160  400000  176     FRICT   400000                  FRICTION FACTOR
                    177                     
    000161  000000  178     TTIME   -262143.-1              THRUST RESTORATION AFTER PARTIAL DAMAGE TIMER
                    179                     
    000162  775777  180     BTIME   -1024.-1                BULLET RESTORATION AFTER PARTIAL DAMAGE TIMER
                    181                     
    000163  000000  182     LTIME   -262143.-1              LEFT TURN RESTORATION AFTER PARTIAL DAMAGE TIMER
                    183                     
    000164  000000  184     RTIME   -262143.-1              RIGHT TURN RESTORATION AFTER PARTIAL DAMAGE TIMER
WAR         08/13/80    20:30:38    PDP-9/GRAPHIC II VERSION OF SPACEWAR                                            PAGE   6

                X                           LOW CORE DEFINITIONS -- RESERVED ADDRESSES -- SOFTWARE -- DISABLE  TABLE -- 1

        000220      186             .LOC    220             ESTABLISH CANONICAL LOCATION FOR PATCHING FACILITY
                    187                     
                    188             .HEAD   1
                    189                     
        000220      190     DTAB    ...     
                    191     *       
                    192     *       
                    193     *       DESTROY SHIP TOTALLY
                    194     *       
    000220  777777  195             777777                  DESTROY SHIP TOTALLY
    000221  777777  196             777777                  DESTROY SHIP TOTALLY
                    197     *       
                    198     *       
                    199     *       DISABLE BULLET-FIRING
                    200     *       
    000222  020000  201             020000                  DISABLE BULLET-FIRING
    000223  020000  202             020000                  DISABLE BULLET-FIRING
    000224  020000  203             020000                  DISABLE BULLET-FIRING
                    204     *       
                    205     *       
                    206     *       
                    207     *       DISABLE THRUST
                    208     *       
    000225  040000  209             040000                  DISABLE THRUST
    000226  040000  210             040000                  DISABLE THRUST
    000227  040000  211             040000                  DISABLE THRUST
                    212     *       
                    213     *       
                    214     *       DISABLE LEFT TURN
                    215     *       
    000230  200000  216             200000                  DISABLE LEFT TURN
    000231  200000  217             200000                  DISABLE LEFT TURN
    000232  200000  218             200000                  DISABLE LEFT TURN
    000233  201000  219             201000                  DISABLE LEFT TURN; TURN ON ANGULAR MOMENTUM
                    220     *       
                    221     *       
                    222     *       DISABLE RIGHT TURN
                    223     *       
    000234  100000  224             100000                  DISABLE RIGHT TURN
    000235  100000  225             100000                  DISABLE RIGHT TURN
    000236  100000  226             100000                  DISABLE RIGHT TURN
    000237  101000  227             101000                  DISABLE RIGHT TURN; TURN ON ANGULAR MOMENTUM
WAR         08/13/80    20:30:38    PDP-9/GRAPHIC II VERSION OF SPACEWAR                                            PAGE   7

                1                           LOW CORE DEFINITIONS -- RESERVED ADDRESSES -- SOFTWARE -- HANDICAP TABLE -- 1

        000240      229             .LOC    240             ESTABLISH CANONICAL LOCATION FOR PATCHING FACILITY
                    230                     
                    231             .HEAD   1
                    232                     
    000240  000004  233     GRAVT   4                       GRAVITY CONSTANT
                    234                     
    000241  660513  235     THRUS   LRSS    11.             THRUST FACTOR
                    236                     
    000242  000060  237     ROLL    48.                     AMOUNT OF ROLL FORCE
                    238                     
    000243  774777  239     FUEL    -1536.-1                FUEL SUPPLY FOR SHIPS
                    240                     
    000244  777737  241     BLNUM   -32.-1                  NUMBER OF BULLETS PER SHIP PER GAME
                    242                     
    000245  660502  243     BLVEL   LRSS    2               BULLET VELOCITY FACTOR
                    244                     
    000246  777577  245     BLTIM   -128.-1                 AMOUNT OF TIME THAT A BULLET LASTS
                    246                     
    000247  777763  247     BLINT   -12.-1                  INTERVAL THAT BULLETS CAN BE SHOT
                    248                     
    000250  772777  249     SUNSZ   -2560.-1                SIZE OF THE SUN
                    250                     
    000251  773777  251     SHPSZ   -2048.-1                SIZE OF THE SHIPS AND BULLETS
                    252                     
    000252  777677  253     WTIME   -64.-1                  AMOUNT OF TIME THAT A WARP LASTS
                    254                     
    000253  777637  255     STIME   -96.-1                  AMOUNT OF TIME THAT A WARP STAR LASTS
                    256                     
    000254  777577  257     DTIME   -128.-1                 AMOUNT OF TIME UNTIL NEXT POSSIBLE WARP
                    258                     
    000255  660500  259     WAREA   LRSS    0               HOW FAR FROM WHERE YOU WARP DO YOU COME BACK?
                    260                     
    000256  660505  261     WVELO   LRSS    5               HOW FAST ARE YOU GOING WHEN YOU COME BACK?
                    262                     
    000257  040000  263     WFACT   040000                  WARP FACTOR
                    264                     
    000260  400000  265     FRICT   400000                  FRICTION FACTOR
                    266                     
    000261  000000  267     TTIME   -262143.-1              THRUST RESTORATION AFTER PARTIAL DAMAGE TIMER
                    268                     
    000262  775777  269     BTIME   -1024.-1                BULLET RESTORATION AFTER PARTIAL DAMAGE TIMER
                    270                     
    000263  000000  271     LTIME   -262143.-1              LEFT TURN RESTORATION AFTER PARTIAL DAMAGE TIMER
                    272                     
    000264  000000  273     RTIME   -262143.-1              RIGHT TURN RESTORATION AFTER PARTIAL DAMAGE TIMER
WAR         08/13/80    20:30:38    PDP-9/GRAPHIC II VERSION OF SPACEWAR                                            PAGE   8

                1                           LOW CORE DEFINITIONS -- RESERVED ADDRESSES -- SOFTWARE -- DISABLE  TABLE -- 2

        000320      275             .LOC    320             ESTABLISH CANONICAL LOCATION FOR PATCHING FACILITY
                    276                     
                    277             .HEAD   2
                    278                     
        000320      279     DTAB    ...     
                    280     *       
                    281     *       
                    282     *       DESTROY SHIP TOTALLY
                    283     *       
    000320  777777  284             777777                  DESTROY SHIP TOTALLY
    000321  777777  285             777777                  DESTROY SHIP TOTALLY
                    286     *       
                    287     *       
                    288     *       DISABLE BULLET-FIRING
                    289     *       
    000322  020000  290             020000                  DISABLE BULLET-FIRING
    000323  020000  291             020000                  DISABLE BULLET-FIRING
    000324  020000  292             020000                  DISABLE BULLET-FIRING
                    293     *       
                    294     *       
                    295     *       
                    296     *       DISABLE THRUST
                    297     *       
    000325  040000  298             040000                  DISABLE THRUST
    000326  040000  299             040000                  DISABLE THRUST
    000327  040000  300             040000                  DISABLE THRUST
                    301     *       
                    302     *       
                    303     *       DISABLE LEFT TURN
                    304     *       
    000330  200000  305             200000                  DISABLE LEFT TURN
    000331  200000  306             200000                  DISABLE LEFT TURN
    000332  200000  307             200000                  DISABLE LEFT TURN
    000333  201000  308             201000                  DISABLE LEFT TURN; TURN ON ANGULAR MOMENTUM
                    309     *       
                    310     *       
                    311     *       DISABLE RIGHT TURN
                    312     *       
    000334  100000  313             100000                  DISABLE RIGHT TURN
    000335  100000  314             100000                  DISABLE RIGHT TURN
    000336  100000  315             100000                  DISABLE RIGHT TURN
    000337  101000  316             101000                  DISABLE RIGHT TURN; TURN ON ANGULAR MOMENTUM
WAR         08/13/80    20:30:38    PDP-9/GRAPHIC II VERSION OF SPACEWAR                                            PAGE   9

                2                           LOW CORE DEFINITIONS -- RESERVED ADDRESSES -- SOFTWARE -- HANDICAP TABLE -- 2

        000340      318             .LOC    340             ESTABLISH CANONICAL LOCATION FOR PATCHING FACILITY
                    319                     
                    320             .HEAD   2
                    321                     
    000340  000004  322     GRAVT   4                       GRAVITY CONSTANT
                    323                     
    000341  660513  324     THRUS   LRSS    11.             THRUST FACTOR
                    325                     
    000342  000060  326     ROLL    48.                     AMOUNT OF ROLL FORCE
                    327                     
    000343  774777  328     FUEL    -1536.-1                FUEL SUPPLY FOR SHIPS
                    329                     
    000344  777737  330     BLNUM   -32.-1                  NUMBER OF BULLETS PER SHIP PER GAME
                    331                     
    000345  660502  332     BLVEL   LRSS    2               BULLET VELOCITY FACTOR
                    333                     
    000346  777577  334     BLTIM   -128.-1                 AMOUNT OF TIME THAT A BULLET LASTS
                    335                     
    000347  777763  336     BLINT   -12.-1                  INTERVAL THAT BULLETS CAN BE SHOT
                    337                     
    000350  772777  338     SUNSZ   -2560.-1                SIZE OF THE SUN
                    339                     
    000351  773777  340     SHPSZ   -2048.-1                SIZE OF THE SHIPS AND BULLETS
                    341                     
    000352  777677  342     WTIME   -64.-1                  AMOUNT OF TIME THAT A WARP LASTS
                    343                     
    000353  777637  344     STIME   -96.-1                  AMOUNT OF TIME THAT A WARP STAR LASTS
                    345                     
    000354  777577  346     DTIME   -128.-1                 AMOUNT OF TIME UNTIL NEXT POSSIBLE WARP
                    347                     
    000355  660500  348     WAREA   LRSS    0               HOW FAR FROM WHERE YOU WARP DO YOU COME BACK?
                    349                     
    000356  660505  350     WVELO   LRSS    5               HOW FAST ARE YOU GOING WHEN YOU COME BACK?
                    351                     
    000357  040000  352     WFACT   040000                  WARP FACTOR
                    353                     
    000360  400000  354     FRICT   400000                  FRICTION FACTOR
                    355                     
    000361  000000  356     TTIME   -262143.-1              THRUST RESTORATION AFTER PARTIAL DAMAGE TIMER
                    357                     
    000362  775777  358     BTIME   -1024.-1                BULLET RESTORATION AFTER PARTIAL DAMAGE TIMER
                    359                     
    000363  000000  360     LTIME   -262143.-1              LEFT TURN RESTORATION AFTER PARTIAL DAMAGE TIMER
                    361                     
    000364  000000  362     RTIME   -262143.-1              RIGHT TURN RESTORATION AFTER PARTIAL DAMAGE TIMER
WAR         08/13/80    20:30:38    PDP-9/GRAPHIC II VERSION OF SPACEWAR                                            PAGE  10

                2                           LOW CORE DEFINITIONS -- RESERVED ADDRESSES -- SOFTWARE -- DISABLE  TABLE -- 3

        000420      364             .LOC    420             ESTABLISH CANONICAL LOCATION FOR PATCHING FACILITY
                    365                     
                    366             .HEAD   3
                    367                     
        000420      368     DTAB    ...     
                    369     *       
                    370     *       
                    371     *       DESTROY SHIP TOTALLY
                    372     *       
    000420  777777  373             777777                  DESTROY SHIP TOTALLY
    000421  777777  374             777777                  DESTROY SHIP TOTALLY
                    375     *       
                    376     *       
                    377     *       DISABLE BULLET-FIRING
                    378     *       
    000422  020000  379             020000                  DISABLE BULLET-FIRING
    000423  020000  380             020000                  DISABLE BULLET-FIRING
    000424  020000  381             020000                  DISABLE BULLET-FIRING
                    382     *       
                    383     *       
                    384     *       
                    385     *       DISABLE THRUST
                    386     *       
    000425  040000  387             040000                  DISABLE THRUST
    000426  040000  388             040000                  DISABLE THRUST
    000427  040000  389             040000                  DISABLE THRUST
                    390     *       
                    391     *       
                    392     *       DISABLE LEFT TURN
                    393     *       
    000430  200000  394             200000                  DISABLE LEFT TURN
    000431  200000  395             200000                  DISABLE LEFT TURN
    000432  200000  396             200000                  DISABLE LEFT TURN
    000433  201000  397             201000                  DISABLE LEFT TURN; TURN ON ANGULAR MOMENTUM
                    398     *       
                    399     *       
                    400     *       DISABLE RIGHT TURN
                    401     *       
    000434  100000  402             100000                  DISABLE RIGHT TURN
    000435  100000  403             100000                  DISABLE RIGHT TURN
    000436  100000  404             100000                  DISABLE RIGHT TURN
    000437  101000  405             101000                  DISABLE RIGHT TURN; TURN ON ANGULAR MOMENTUM
WAR         08/13/80    20:30:38    PDP-9/GRAPHIC II VERSION OF SPACEWAR                                            PAGE  11

                3                           LOW CORE DEFINITIONS -- RESERVED ADDRESSES -- SOFTWARE -- HANDICAP TABLE -- 3

        000440      407             .LOC    440             ESTABLISH CANONICAL LOCATION FOR PATCHING FACILITY
                    408                     
                    409             .HEAD   3
                    410                     
    000440  000004  411     GRAVT   4                       GRAVITY CONSTANT
                    412                     
    000441  660513  413     THRUS   LRSS    11.             THRUST FACTOR
                    414                     
    000442  000060  415     ROLL    48.                     AMOUNT OF ROLL FORCE
                    416                     
    000443  774777  417     FUEL    -1536.-1                FUEL SUPPLY FOR SHIPS
                    418                     
    000444  777737  419     BLNUM   -32.-1                  NUMBER OF BULLETS PER SHIP PER GAME
                    420                     
    000445  660502  421     BLVEL   LRSS    2               BULLET VELOCITY FACTOR
                    422                     
    000446  777577  423     BLTIM   -128.-1                 AMOUNT OF TIME THAT A BULLET LASTS
                    424                     
    000447  777763  425     BLINT   -12.-1                  INTERVAL THAT BULLETS CAN BE SHOT
                    426                     
    000450  772777  427     SUNSZ   -2560.-1                SIZE OF THE SUN
                    428                     
    000451  773777  429     SHPSZ   -2048.-1                SIZE OF THE SHIPS AND BULLETS
                    430                     
    000452  777677  431     WTIME   -64.-1                  AMOUNT OF TIME THAT A WARP LASTS
                    432                     
    000453  777637  433     STIME   -96.-1                  AMOUNT OF TIME THAT A WARP STAR LASTS
                    434                     
    000454  777577  435     DTIME   -128.-1                 AMOUNT OF TIME UNTIL NEXT POSSIBLE WARP
                    436                     
    000455  660500  437     WAREA   LRSS    0               HOW FAR FROM WHERE YOU WARP DO YOU COME BACK?
                    438                     
    000456  660505  439     WVELO   LRSS    5               HOW FAST ARE YOU GOING WHEN YOU COME BACK?
                    440                     
    000457  040000  441     WFACT   040000                  WARP FACTOR
                    442                     
    000460  400000  443     FRICT   400000                  FRICTION FACTOR
                    444                     
    000461  000000  445     TTIME   -262143.-1              THRUST RESTORATION AFTER PARTIAL DAMAGE TIMER
                    446                     
    000462  775777  447     BTIME   -1024.-1                BULLET RESTORATION AFTER PARTIAL DAMAGE TIMER
                    448                     
    000463  000000  449     LTIME   -262143.-1              LEFT TURN RESTORATION AFTER PARTIAL DAMAGE TIMER
                    450                     
    000464  000000  451     RTIME   -262143.-1              RIGHT TURN RESTORATION AFTER PARTIAL DAMAGE TIMER
WAR         08/13/80    20:30:38    PDP-9/GRAPHIC II VERSION OF SPACEWAR                                            PAGE  12

                3                           LOW CORE DEFINITIONS -- RESERVED ADDRESSES -- SOFTWARE -- DISABLE  TABLE

        000520      453             .LOC    520             ESTABLISH CANONICAL LOCATION FOR PATCHING FACILITY
                    454                     
                    455             .HEAD   
                    456                     
        000520      457     DTAB    ...     
                    458     *       
                    459     *       
                    460     *       DESTROY SHIP TOTALLY
                    461     *       
    000520  777777  462             777777                  DESTROY SHIP TOTALLY
    000521  777777  463             777777                  DESTROY SHIP TOTALLY
                    464     *       
                    465     *       
                    466     *       DISABLE BULLET-FIRING
                    467     *       
    000522  020000  468             020000                  DISABLE BULLET-FIRING
    000523  020000  469             020000                  DISABLE BULLET-FIRING
    000524  020000  470             020000                  DISABLE BULLET-FIRING
                    471     *       
                    472     *       
                    473     *       
                    474     *       DISABLE THRUST
                    475     *       
    000525  040000  476             040000                  DISABLE THRUST
    000526  040000  477             040000                  DISABLE THRUST
    000527  040000  478             040000                  DISABLE THRUST
                    479     *       
                    480     *       
                    481     *       DISABLE LEFT TURN
                    482     *       
    000530  200000  483             200000                  DISABLE LEFT TURN
    000531  200000  484             200000                  DISABLE LEFT TURN
    000532  200000  485             200000                  DISABLE LEFT TURN
    000533  201000  486             201000                  DISABLE LEFT TURN; TURN ON ANGULAR MOMENTUM
                    487     *       
                    488     *       
                    489     *       DISABLE RIGHT TURN
                    490     *       
    000534  100000  491             100000                  DISABLE RIGHT TURN
    000535  100000  492             100000                  DISABLE RIGHT TURN
    000536  100000  493             100000                  DISABLE RIGHT TURN
    000537  101000  494             101000                  DISABLE RIGHT TURN; TURN ON ANGULAR MOMENTUM
WAR         08/13/80    20:30:38    PDP-9/GRAPHIC II VERSION OF SPACEWAR                                            PAGE  13

                                            LOW CORE DEFINITIONS -- RESERVED ADDRESSES -- SOFTWARE -- HANDICAP TABLE

        000540      496             .LOC    540             ESTABLISH CANONICAL LOCATION FOR PATCHING FACILITY
                    497                     
                    498             .HEAD   
                    499                     
    000540  000004  500     GRAVT   4                       GRAVITY CONSTANT
                    501                     
    000541  660513  502     THRUS   LRSS    11.             THRUST FACTOR
                    503                     
    000542  000060  504     ROLL    48.                     AMOUNT OF ROLL FORCE
                    505                     
    000543  774777  506     FUEL    -1536.-1                FUEL SUPPLY FOR SHIPS
                    507                     
    000544  777737  508     BLNUM   -32.-1                  NUMBER OF BULLETS PER SHIP PER GAME
                    509                     
    000545  660502  510     BLVEL   LRSS    2               BULLET VELOCITY FACTOR
                    511                     
    000546  777577  512     BLTIM   -128.-1                 AMOUNT OF TIME THAT A BULLET LASTS
                    513                     
    000547  777763  514     BLINT   -12.-1                  INTERVAL THAT BULLETS CAN BE SHOT
                    515                     
    000550  772777  516     SUNSZ   -2560.-1                SIZE OF THE SUN
                    517                     
    000551  773777  518     SHPSZ   -2048.-1                SIZE OF THE SHIPS AND BULLETS
                    519                     
    000552  777677  520     WTIME   -64.-1                  AMOUNT OF TIME THAT A WARP LASTS
                    521                     
    000553  777637  522     STIME   -96.-1                  AMOUNT OF TIME THAT A WARP STAR LASTS
                    523                     
    000554  777577  524     DTIME   -128.-1                 AMOUNT OF TIME UNTIL NEXT POSSIBLE WARP
                    525                     
    000555  660500  526     WAREA   LRSS    0               HOW FAR FROM WHERE YOU WARP DO YOU COME BACK?
                    527                     
    000556  660505  528     WVELO   LRSS    5               HOW FAST ARE YOU GOING WHEN YOU COME BACK?
                    529                     
    000557  040000  530     WFACT   040000                  WARP FACTOR
                    531                     
    000560  400000  532     FRICT   400000                  FRICTION FACTOR
                    533                     
    000561  000000  534     TTIME   -262143.-1              THRUST RESTORATION AFTER PARTIAL DAMAGE TIMER
                    535                     
    000562  775777  536     BTIME   -1024.-1                BULLET RESTORATION AFTER PARTIAL DAMAGE TIMER
                    537                     
    000563  000000  538     LTIME   -262143.-1              LEFT TURN RESTORATION AFTER PARTIAL DAMAGE TIMER
                    539                     
    000564  000000  540     RTIME   -262143.-1              RIGHT TURN RESTORATION AFTER PARTIAL DAMAGE TIMER
WAR         08/13/80    20:30:38    PDP-9/GRAPHIC II VERSION OF SPACEWAR                                            PAGE  14

                                            INITIALIZATION ROUTINES -- START OF NEW PROGRAM

        000600      542             .LOC    600
                    543     *       
                    544     *       
                    545     *       CLEAR ALL FLAGS
                    546     *       
    000600  703302  547     START   CAF                     CLEAR ALL FLAGS
    000601  700501  548             CDF                     CLEAR DISPLAY FLAGS
                    549     *       
                    550     *       
                    551     *       SET UP POINTERS TO THE SCOPE BUFFERS
                    552     *       
    000602  205771  553             LAC     (3000)          SIZE OF A SCOPE BUFFER FOR SHIPS AND BULLETS
    000603  043526  554             DAC     OFFSET          KEEP IT AROUND 
                    555                     
    000604  203520  556             LAC     PSCBUF          ADDRESS OF SCOPE BUFFER
                    557                     
    000605  305772  558             ADD     (777)           ADD THE LENGTH OF THE STAR SCOPE BUFFER
    000606  043523  559             DAC     STREND          TO GET THE ADDRESS OF THE STAR SCOPE BUFFER TRAP WORD
                    560                     
    000607  305773  561             ADD     (1)             ADD ONE
    000610  043524  562             DAC     PBUFF1          TO GET THE ADDRESS OF THE FIRST SCOPE BUFFER
                    563                     
    000611  303526  564             ADD     OFFSET          ADD THE SIZE OF A SCOPE BUFFER
    000612  043525  565             DAC     PBUFF2          TO GET THE ADDRESS OF THE SECOND SCOPE BUFFER
                    566     *       
                    567     *       
                    568     *       FILL UP ALL THE SCOPE BUFFERS WITH CONTROL WORDS
                    569     *       
    000613  303526  570             ADD     OFFSET          ***
    000614  740001  571             CMA                     * CALCULATE THE COMBINED LENGTH OF ALL THE SCOPE BUFFERS
    000615  303520  572             ADD     PSCBUF          ***
    000616  043530  573             DAC     TEMP0
                    574                     
    000617  777777  575             LAW     -1              ***
    000620  303520  576             ADD     PSCBUF          * SET UP A POINTER TO THE BEGINNING OF THE SCOPE BUFFERS
    000621  040015  577             DAC     X5              ***
                    578                     
    000622  205774  579             LAC     (300000)        LOAD A CONTROL WORD
                    580                     
    000623  060015  581             DAC     X5,I            ***
    000624  443530  582             ISZ     TEMP0           * FILL UP ALL THE SCOPE BUFFERS WITH CONTROL WORDS
    000625  600623  583             JMP     .-2             ***
WAR         08/13/80    20:30:38    PDP-9/GRAPHIC II VERSION OF SPACEWAR                                            PAGE  15

                                            INITIALIZATION ROUTINES -- START OF NEW PROGRAM

                    585     *       
                    586     *       
                    587     *       INITIALIZE SCOPE BUFFER PARAMETER AND TRAP WORDS
                    588     *       
    000626  205775  589             LAC     (065040)        GET A PARAMETER WORD
    000627  063520  590             DAC     PSCBUF,I        PUT IT AT THE BEGINNING OF THE STAR SCOPE BUFFER
                    591                     
    000630  205776  592             LAC     (400000)        ***
    000631  303520  593             ADD     PSCBUF          * LINK THE STAR SCOPE BUFFER ONTO THE END OF THE FIRST SCOPE BUFFER
    000632  063525  594             DAC     PBUFF2,I        ***
                    595                     
    000633  205776  596             LAC     (400000)        ***
    000634  303525  597             ADD     PBUFF2          * LINK THE SECOND SCOPE BUFFER ONTO THE END OF THE STAR SCOPE BUFFER
    000635  063523  598             DAC     STREND,I        ***
                    599     *       
                    600     *       
                    601     *       CREATE A REAL-TIME ENVIRONMENT
                    602     *       
    000636  203520  603             LAC     PSCBUF
                    604                     
    000637  700044  605             CLON                    TURN ON THE CLOCK
                    606                     
    000640  700042  607             ION                     TURN ON THE PROGRAM INTERRUPT SYSTEM
                    608                     
    000641  700547  609             BEG                     TURN ON THE SCOPE DISPLAY
WAR         08/13/80    20:30:38    PDP-9/GRAPHIC II VERSION OF SPACEWAR                                            PAGE  16

                                            INITIALIZATION ROUTINES -- START OF NEW PROGRAM

                    611     *       
                    612     *       
                    613     *       SET UP THE STARS
                    614     *       
    000642  777757  615             LAW     -16.-1          INITIALIZE THE STAR TIMER
    000643  043540  616             DAC     STIMER
                    617                     
    000644  203520  618             LAC     PSCBUF          GET A POINTER TO THE STAR SCOPE BUFFER
    000645  040011  619             DAC     X1
                    620                     
    000646  205777  621             LAC     (STABLE-1)      GET A POINTER TO THE STAR TABLE
    000647  040012  622             DAC     X2
                    623                     
    000650  220012  624     START1  LAC     X2,I            PICK UP THE X-COORDINATE
    000651  741100  625             SPA                     SEE IF THIS IS A STARTING STAR
    000652  600667  626             JMP     START2          IF NOT, WE'RE DONE WITH THE SETTING UP
                    627                     
    000653  043530  628             DAC     TEMP0           IF SO, SAVE THE X-COORDINATE
                    629                     
    000654  220012  630             LAC     X2,I            PICK UP THE Y-COORDINATE AND INTENSITY
    000655  673603  631             LMQ!EAECLA!LLSS 3       RIGHT JUSTIFY INTENSITY IN AC
    000656  246000  632             XOR     (040000)        OR IN SCOPE COMMAND
    000657  060011  633             DAC     X1,I            PUT IN STAR SCOPE BUFFER
                    634                     
    000660  203530  635             LAC     TEMP0           GET BACK X-COORDINATE
    000661  246001  636             XOR     (140000)        OR IN SCOPE COMMAND
    000662  060011  637             DAC     X1,I            PUT IN STAR SCOPE BUFFER
                    638                     
    000663  661617  639             EAECLA!LLSS 18.-3       GET BACK Y-COORDINATE
    000664  246002  640             XOR     (174000)        OR IN SCOPE COMMAND
    000665  060011  641             DAC     X1,I            PUT IN STAR SCOPE BUFFER
                    642                     
    000666  600650  643             JMP     START1
                    644                     
    000667  200012  645     START2  LAC     X2              SAVE FINAL POINTER TO STAR TABLE
    000670  043542  646             DAC     PSTABL
                    647                     
    000671  200011  648             LAC     X1              ***
    000672  043522  649             DAC     PSBUF2          * SAVE FINAL POINTER TO STAR SCOPE BUFFER
    000673  443522  650             ISZ     PSBUF2          ***
                    651                     
    000674  203520  652             LAC     PSCBUF          ***
    000675  043521  653             DAC     PSBUF1          * INITIALIZE POINTER TO BEGINNING OF STAR SCOPE BUFFER
    000676  443521  654             ISZ     PSBUF1          ***
                    655                     
    000677  143541  656             DZM     SRANGE          INITIALIZE X-COORDINATE RANGE
WAR         08/13/80    20:30:38    PDP-9/GRAPHIC II VERSION OF SPACEWAR                                            PAGE  17

                                            INITIALIZATION ROUTINES -- START OF NEW GAME

    000700  763542  658     AGAIN   LAW     SXTRAN-1        SET UP A POINTER TO THE OBJECT DEFINITION TABLE
    000701  040015  659             DAC     X5
                    660                     
    000702  777453  661             LAW     -ODTLEN         GET THE SIZE OF THE OBJECT DEFINITION TABLE
    000703  043530  662             DAC     TEMP0
                    663                     
    000704  160015  664             DZM     X5,I            ***
    000705  443530  665             ISZ     TEMP0           * ZERO OUT THE OBJECT DEFINITION TABLE
    000706  600704  666             JMP     .-2             ***
                    667     *       
                    668     *       
                    669     *       DEFINE TRANSFER VECTOR ENTRIES FOR EACH SHIP
                    670     *       
    000707  206003  671             LAC     (S1SHIP+300000) SET UP MANAGEMENT ROUTINE ADDRESS FOR SHIP 1
    000710  043543  672             DAC     S1TRAN
                    673                     
    000711  206004  674             LAC     (S2SHIP+300000) SET UP MANAGEMENT ROUTINE ADDRESS FOR SHIP 2
    000712  043544  675             DAC     S2TRAN
                    676                     
    000713  750004  677             LAS                     GET THE SWITCHES
    000714  043413  678             DAC     SWITCH          SAVE THE SWITCHES
                    679                     
    000715  506005  680             AND     (002000)        CHECK FOR THIRD SHIP
    000716  744200  681             SZA!CLL 
    000717  206006  682             LAC     (S3SHIP+300000) SET UP MANAGEMENT ROUTINE ADDRESS FOR SHIP 3
    000720  043545  683             DAC     S3TRAN
                    684     *       
                    685     *       
                    686     *       SAVE NUMBER OF SHIPS PARTICPATING IN THIS GAME
                    687     *       
    000721  742010  688             RTL     
    000722  750010  689             GLK     
    000723  740001  690             CMA     
    000724  043536  691             DAC     NSHIP           INITIALIZE COUNTER OF SURVIVING SHIPS
                    692     *       
                    693     *       
                    694     *       FLAG THAT EACH SHIP IS INITIALLY UNDAMAGED
                    695     *       
    000725  044051  696             DAC     S1DAMS          NO DAMAGE TO SHIP 1 INITIALLY
    000726  044052  697             DAC     S2DAMS          NO DAMAGE TO SHIP 2 INITIALLY
    000727  044053  698             DAC     S3DAMS          NO DAMAGE TO SHIP 3 INITIALLY
                    699     *       
                    700     *       
                    701     *       CALCULATE AMOUNT OF TIME THAT GAME LASTS AFTER LAST SHOTS HAVE BEEN FIRED
                    702     *       
    000730  200146  703             LAC     X$BLTIM         AMOUNT OF TIME THAT A BULLET LASTS
    000731  660701  704             ALSS    1               TIMES TWO
    000732  043537  705             DAC     GAMTIM          YIELDS PAUSE TIME BETWEEN GAMES
WAR         08/13/80    20:30:38    PDP-9/GRAPHIC II VERSION OF SPACEWAR                                            PAGE  18

                                            INITIALIZATION ROUTINES -- START OF NEW GAME

                    707     *       
                    708     *       
                    709     *       SET UP RANDOM POSITIONS OF EACH SHIP
                    710     *       
    000733  103275  711             JMS     RNDPOS          GET RANDOM POSITIONS
    000734  043573  712             DAC     S1XLOC          SET UP RANDOM X LOCATION OF SHIP 1
    000735  641002  713             LACQ                    SET UP RANDOM   POSITION OF SHIP 1
    000736  043623  714             DAC     S1YLOC          SET UP RANDOM Y LOCATION OF SHIP 1
                    715                     
    000737  103275  716             JMS     RNDPOS          GET RANDOM POSITIONS
    000740  043574  717             DAC     S2XLOC          SET UP RANDOM X LOCATION OF SHIP 2
    000741  641002  718             LACQ                    SET UP RANDOM   POSITION OF SHIP 2
    000742  043624  719             DAC     S2YLOC          SET UP RANDOM Y LOCATION OF SHIP 2
                    720                     
    000743  103275  721             JMS     RNDPOS          GET RANDOM POSITIONS
    000744  043575  722             DAC     S3XLOC          SET UP RANDOM X LOCATION OF SHIP 3
    000745  641002  723             LACQ                    SET UP RANDOM   POSITION OF SHIP 3
    000746  043625  724             DAC     S3YLOC          SET UP RANDOM Y LOCATION OF SHIP 3
                    725     *       
                    726     *       
                    727     *       SET UP RANDOM ORIENTATIONS OF EACH SHIP
                    728     *       
    000747  103265  729             JMS     RANDOM          GET A PSEUDO-RANDOM NUMBER
    000750  044013  730             DAC     S1ANGL
                    731                     
    000751  742010  732             RTL                     ROTATE A LITTLE
    000752  044014  733             DAC     S2ANGL
                    734                     
    000753  742010  735             RTL                     ROTATE A LITTLE MORE
    000754  044015  736             DAC     S3ANGL
WAR         08/13/80    20:30:38    PDP-9/GRAPHIC II VERSION OF SPACEWAR                                            PAGE  19

                                            INITIALIZATION ROUTINES -- START OF NEW GAME

                    738     *       
                    739     *       
                    740     *       SUPPLY EACH SHIP WITH FUEL AND BULLETS
                    741     *       
    000755  200143  742             LAC     X$FUEL          GET INITIAL FUEL SUPPLY FOR EACH SHIP
    000756  044021  743             DAC     S1FUEL          SUPPLY SHIP 1 WITH FUEL
    000757  044022  744             DAC     S2FUEL          SUPPLY SHIP 2 WITH FUEL
    000760  044023  745             DAC     S3FUEL          SUPPLY SHIP 3 WITH FUEL
                    746                     
    000761  200144  747             LAC     X$BLNUM         GET INITIAL BULLET SUPPLY FOR EACH SHIP
    000762  044024  748             DAC     S1BULL          SUPPLY SHIP 1 WITH BULLETS
    000763  044025  749             DAC     S2BULL          SUPPLY SHIP 2 WITH BULLETS
    000764  044026  750             DAC     S3BULL          SUPPLY SHIP 3 WITH BULLETS
                    751                     
    000765  203413  752             LAC     SWITCH          GET BACK THE SWITCHES
    000766  506007  753             AND     (000200)        SEE IF SWITCH 10 SET
    000767  741200  754             SNA                     YES, SHIPS HAVE INDIVIDUAL SUPPLIES DEFINED FOR THEM
    000770  601005  755             JMP     AGAIN1          NO, FUEL SUPPLIES ARE THE SAME FOR ALL THREE SHIPS
                    756                     
    000771  200243  757             LAC     1$FUEL          SUPPLY SHIP 1 WITH FUEL
    000772  044021  758             DAC     S1FUEL
                    759                     
    000773  200343  760             LAC     2$FUEL          SUPPLY SHIP 2 WITH FUEL
    000774  044022  761             DAC     S2FUEL
                    762                     
    000775  200443  763             LAC     3$FUEL          SUPPLY SHIP 3 WITH FUEL
    000776  044023  764             DAC     S3FUEL
                    765                     
    000777  200244  766             LAC     1$BLNUM         SUPPLY SHIP 1 WITH BULLETS
    001000  044024  767             DAC     S1BULL
                    768                     
    001001  200344  769             LAC     2$BLNUM         SUPPLY SHIP 2 WITH BULLETS
    001002  044025  770             DAC     S2BULL
                    771                     
    001003  200444  772             LAC     3$BLNUM         SUPPLY SHIP 3 WITH BULLETS
    001004  044026  773             DAC     S3BULL
                    774                     
    001005  203413  775     AGAIN1  LAC     SWITCH          GET BACK THE SWITCHES
    001006  640707  776             ALS     7.              CHECK FOR THIRD SHIP
    001007  740110  777             SMA!RAL                 SHIP IS PRESENT, MAINTAIN ITS BULLET SUPPLY
    001010  144026  778             DZM     S3BULL          SHIP IS NOT PRESENT, WIPE OUT ITS BULLET SUPPLY
WAR         08/13/80    20:30:38    PDP-9/GRAPHIC II VERSION OF SPACEWAR                                            PAGE  20

                                            INITIALIZATION ROUTINES -- START OF NEW GAME

                    780     *       
                    781     *       
                    782     *       ALLOW PLAYERS TO CHOOSE DIFFERENT SHIPS
                    783     *       
    001011  203413  784             LAC     SWITCH          GET BACK THE SWITCHES
    001012  506010  785             AND     (000100)        CHECK BIT 11
    001013  741200  786             SNA                     SKIP IF PLAYERS WANT CHOICE IN MATTER
    001014  601033  787             JMP     SETUP1          NO, THEY'RE NOT FUSSY
                    788                     
    001015  761033  789             LAW     SETUP1          ***
    001016  652000  790             LMQ                     * POINT TO INSTRUCTIONS USED TO SET UP POINTERS TO PICTURES OF SHIP 1
    001017  761041  791             LAW     SETUD1          ***
    001020  101050  792             JMS     SELECT
                    793                     
    001021  761035  794             LAW     SETUP2          ***
    001022  652000  795             LMQ                     * POINT TO INSTRUCTIONS USED TO SET UP POINTERS TO PICTURES OF SHIP 2
    001023  761043  796             LAW     SETUD2          ***
    001024  101050  797             JMS     SELECT
                    798                     
    001025  740400  799             SNL                     CHECK FOR THIRD SHIP
    001026  601033  800             JMP     SETUP1
                    801                     
    001027  761037  802             LAW     SETUP3          ***
    001030  652000  803             LMQ                     * POINT TO INSTRUCTIONS USED TO SET UP POINTERS TO PICTURES OF SHIP 3
    001031  761045  804             LAW     SETUD3          ***
    001032  101050  805             JMS     SELECT
                    806     *       
                    807     *       
                    808     *       SET UP POINTERS TO PICTURES OF SHIPS
                    809     *       
    001033  762700  810     SETUP1  LAW     S1PIC-1         LONG, SLIM SHIP
    001034  044027  811             DAC     S1PICP
                    812                     
    001035  762716  813     SETUP2  LAW     S2PIC-1         SHORT, FAT SHIP
    001036  044030  814             DAC     S2PICP
                    815                     
    001037  762733  816     SETUP3  LAW     S3PIC-1         U.S.S. ENTERPRISE
    001040  044031  817             DAC     S3PICP
                    818     *       
                    819     *       
                    820     *       SET UP POINTERS TO PICTURES OF DAMAGED SHIPS
                    821     *       
    001041  762710  822     SETUD1  LAW     S1PICD-1        LONG, SLIM SHIP
    001042  044032  823             DAC     S1PICN
                    824                     
    001043  762726  825     SETUD2  LAW     S2PICD-1        SHORT, FAT SHIP
    001044  044033  826             DAC     S2PICN
                    827                     
    001045  762745  828     SETUD3  LAW     S3PICD-1        U.S.S. ENTERPRISE
    001046  044034  829             DAC     S3PICN
                    830                     
    001047  601104  831             JMP     BUMP
WAR         08/13/80    20:30:38    PDP-9/GRAPHIC II VERSION OF SPACEWAR                                            PAGE  21

                                            INITIALIZATION ROUTINES -- START OF NEW GAME

                    833                     
                    834                     
    001050  740040  835     SELECT  XX      
                    836                     
    001051  041103  837             DAC     DAMSET          ***
    001052  641002  838             LACQ                    * SAVE PROGRAM INSERTION ADDRESSES
    001053  041102  839             DAC     PICSET          ***
                    840                     
    001054  762656  841             LAW     SBANK-2-1       SET UP A POINTER TO BEGINNING OF SHIP TABLE
    001055  040017  842             DAC     X7
                    843                     
    001056  704412  844     SEL1    LPB     
    001057  704424  845             WBL                     ACKNOWLEDGE DEPRESSED PUSHBUTTONS
                    846                     
    001060  741200  847             SNA                     SKIP IF PUSHBUTTON DEPRESSED
    001061  601056  848             JMP     SEL1            JUMP IF NOT
                    849                     
    001062  652000  850             LMQ                     SET UP PUSHBUTTON READING FOR SHIFT INTO ACCUMULATOR
                    851                     
    001063  206011  852             LAC     (500000)        INITIALIZE DELAY COUNT
    001064  043530  853             DAC     TEMP0
                    854                     
    001065  704412  855             LPB                     ***
    001066  443530  856             ISZ     TEMP0           * PAUSE FOR A FRACTION OF A SECOND
    001067  601065  857             JMP     .-2             ***
                    858                     
    001070  640601  859     SEL2    LLS     1               LOOK FOR PUSHED BUTTON
                    860                     
    001071  440017  861             ISZ     X7              BUMP TABLE POINTER
    001072  440017  862             ISZ     X7              BY ONE DOUBLE-WORD ENTRY
                    863                     
    001073  741200  864             SNA                     SKIP IF THIS WAS THE PUSHED BUTTON
    001074  601070  865             JMP     SEL2
                    866                     
    001075  220017  867             LAC     X7,I            GET INSTRUCTION TO SET UP POINTER TO PICTURE
    001076  061102  868             DAC     PICSET,I        INSERT IT IN THE PROGRAM
                    869                     
    001077  220017  870             LAC     X7,I            GET INSTRUCTION TO SET UP POINTER TO DAMAGED PICTURE
    001100  061103  871             DAC     DAMSET,I        INSERT IT IN THE PROGRAM
                    872                     
    001101  621050  873             JMP     SELECT,I        AND EXIT
                    874                     
                    875                     
    001102  000000  876     PICSET  0       
    001103  000000  877     DAMSET  0       
WAR         08/13/80    20:30:38    PDP-9/GRAPHIC II VERSION OF SPACEWAR                                            PAGE  22

                                            OBJECT MANAGEMENT ROUTINES -- COLLISION CHECKING -- INITIALIZATION

                    879     *       
                    880     *       
                    881     *       SET CLOCK
                    882     *       
    001104  777776  883     BUMP    LAW     -2              SET CLOCK TO INTERRUPT AFTER TWO TIMER UNITS HAVE EXPIRED
    001105  040007  884             DAC     CLOCK
                    885     *       
                    886     *       
                    887     *       SET UP IDLE LOOP
                    888     *       
    001106  206012  889             LAC     (JMP THREE)     SET UP IDLE LOOP TO IDLE
    001107  040003  890             DAC     THREE
                    891     *       
                    892     *       
                    893     *       GET AND SAVE THE PUSHBUTTONS AND THE SWITCHES
                    894     *       
    001110  704412  895             LPB                     GET THE PUSHBUTTONS
    001111  704424  896             WBL                     ACKNOWLEDGE DEPRESSED PUSHBUTTONS
    001112  043414  897             DAC     BUTTON          SAVE THE PUSHBUTTONS
                    898                     
    001113  750004  899             LAS                     GET THE SWITCHES
    001114  043413  900             DAC     SWITCH          SAVE THE SWITCHES
                    901     *       
                    902     *       
                    903     *       SET UP A COPY OF THE APPROPRIATE HANDICAP TABLE
                    904     *       
    001115  506007  905             AND     (000200)        SEE IF SWITCH 10 SET
    001116  740200  906             SZA                     ***
    001117  206010  907             LAC     (100)           * GET A POINTER TO THE APPROPRIATE COMMAND TABLE
    001120  306013  908             ADD     (1$DTAB-100-1)  ***
                    909                     
    001121  043527  910             DAC     HANDI           INITIALIZE HANDICAP TABLE POINTER
    001122  040016  911             DAC     X6
                    912                     
    001123  760517  913             LAW     DTAB-1          GET A POINTER TO THE TABLE USED BY THE PROGRAM
    001124  040017  914             DAC     X7
                    915                     
    001125  777733  916             LAW     -RTIME+DTAB-1   GET THE COMPLEMENT OF THE SIZE FOR USE AS A COUNTER
    001126  043530  917             DAC     TEMP0           USE A TEMPORARY TO HOLD THE COUNTER
                    918                     
    001127  220016  919             LAC     X6,I            ***
    001130  060017  920             DAC     X7,I            * COPY OVER THE APPROPRIATE TABLE
    001131  443530  921             ISZ     TEMP0           ***
    001132  601127  922             JMP     .-3
WAR         08/13/80    20:30:38    PDP-9/GRAPHIC II VERSION OF SPACEWAR                                            PAGE  23

                                            OBJECT MANAGEMENT ROUTINES -- COLLISION CHECKING -- INITIALIZATION

                    924     *       
                    925     *       
                    926     *       SWITCH SCOPE BUFFERS
                    927     *       
    001133  203526  928             LAC     OFFSET          ***
    001134  740001  929             CMA                     * GET A POINTER TO THE NEW SCOPE BUFFER
    001135  323523  930             ADD     STREND,I        ***
                    931                     
    001136  306014  932             ADD     (-1-1)          ***
    001137  506015  933             AND     (8.*1024.-1)    * ADJUST, TRIM, AND SAVE IT
    001140  040010  934             DAC     X0              ***
                    935     *       
                    936     *       
                    937     *       INITIALLY INSTRUCT PROGRAM TO INCREMENT VARIOUS SHIP DEFINITION POINTERS
                    938     *       
    001141  206016  939             LAC     (SKP)           CHECK SHIPS FIRST
    001142  041361  940             DAC     DONE
                    941     *       
                    942     *       
                    943     *       INITIALIZE COUNTER OF SHIPS CHECKED AGAINST COLLISION
                    944     *       
    001143  777775  945             LAW     -NUMSHP         INITIALIZE COUNTER OF SHIPS CHECKED AGAINST COLLISION
    001144  043535  946             DAC     SHPCNT
                    947     *       
                    948     *       
                    949     *       INITIALIZE COUNTER OF OBJECTS CHECKED AGAINST COLLISION
                    950     *       
    001145  777750  951             LAW     -NUMOBJ         INITIALIZE COUNTER OF OBJECTS CHECKED AGAINST COLLISION
    001146  043534  952             DAC     OBJCNT
WAR         08/13/80    20:30:38    PDP-9/GRAPHIC II VERSION OF SPACEWAR                                            PAGE  24

                                            OBJECT MANAGEMENT ROUTINES -- COLLISION CHECKING -- INITIALIZATION

                    954     *       
                    955     *       
                    956     *       INITIALIZE POINTERS TO THE OBJECT DEFINITION TABLE
                    957     *       
    001147  763543  958             LAW     SXTRAN
    001150  044070  959             DAC     SQTRAN 
                    960                     
    001151  763573  961             LAW     SXXLOC
    001152  044071  962             DAC     SQXLOC
                    963                     
    001153  763623  964             LAW     SXYLOC
    001154  044072  965             DAC     SQYLOC
                    966                     
    001155  763653  967             LAW     SXXVEL
    001156  044073  968             DAC     SQXVEL
                    969                     
    001157  763703  970             LAW     SXYVEL
    001160  044074  971             DAC     SQYVEL
                    972                     
    001161  763733  973             LAW     SXTIME
    001162  044075  974             DAC     SQTIME
                    975                     
    001163  763763  976             LAW     SXDIST
    001164  044076  977             DAC     SQDIST
WAR         08/13/80    20:30:38    PDP-9/GRAPHIC II VERSION OF SPACEWAR                                            PAGE  25

                                            OBJECT MANAGEMENT ROUTINES -- COLLISION CHECKING -- INITIALIZATION

    001165  764013  979             LAW     SXANGL
    001166  044077  980             DAC     SQANGL
                    981                     
    001167  764016  982             LAW     SXROLL
    001170  044100  983             DAC     SQROLL
                    984                     
    001171  764021  985             LAW     SXFUEL
    001172  044101  986             DAC     SQFUEL
                    987                     
    001173  764024  988             LAW     SXBULL
    001174  044102  989             DAC     SQBULL
                    990                     
    001175  764027  991             LAW     SXPICP
    001176  044103  992             DAC     SQPICP
                    993                     
    001177  764032  994             LAW     SXPICN
    001200  044104  995             DAC     SQPICN
                    996                     
    001201  764035  997             LAW     SXWTIM
    001202  044105  998             DAC     SQWTIM
                    999                     
    001203  764040  1000            LAW     SXWFAC
    001204  044106  1001            DAC     SQWFAC
                    1002                    
    001205  764043  1003            LAW     SXINVF
    001206  044107  1004            DAC     SQINVF
                    1005                    
    001207  764046  1006            LAW     SXINVT
    001210  044110  1007            DAC     SQINVT
                    1008                    
    001211  764051  1009            LAW     SXDAMS
    001212  044111  1010            DAC     SQDAMS
                    1011                    
    001213  764054  1012            LAW     SXTTIM
    001214  044112  1013            DAC     SQTTIM
                    1014                    
    001215  764057  1015            LAW     SXBTIM
    001216  044113  1016            DAC     SQBTIM
                    1017                    
    001217  764062  1018            LAW     SXLTIM
    001220  044114  1019            DAC     SQLTIM
                    1020                    
    001221  764065  1021            LAW     SXRTIM
    001222  044115  1022            DAC     SQRTIM
WAR         08/13/80    20:30:38    PDP-9/GRAPHIC II VERSION OF SPACEWAR                                            PAGE  26

                                            OBJECT MANAGEMENT ROUTINES -- COLLISION CHECKING -- INITIALIZATION

                    1024    *       
                    1025    *       
                    1026    *       TERMINATE GAME IF LESS THAN TWO SHIPS SURVIVE
                    1027    *       
    001223  203536  1028            LAC     NSHIP           ***
    001224  740100  1029            SMA                     * TERMINATE GAME IF LESS THAN TWO SHIPS SURVIVE
    001225  601232  1030            JMP     ENDGAM          ***
                    1031    *       
                    1032    *       
                    1033    *       TERMINATE GAME IF ALL THE SHIPS ARE OUT OF BULLETS
                    1034    *       
    001226  204024  1035            LAC     S1BULL          GET BULLET SUPPLY OF SHIP 1
    001227  304025  1036            ADD     S2BULL          ADD BULLET SUPPLY OF SHIP 2
    001230  304026  1037            ADD     S3BULL          ADD BULLET SUPPLY OF SHIP 3
    001231  741200  1038            SNA     
                    1039                    
    001232  443537  1040    ENDGAM  ISZ     GAMTIM          IS THE GAME OVER YET?
    001233  601235  1041            JMP     BUMP1           NO, SO RETURN
                    1042                    
    001234  600700  1043            JMP     AGAIN           YES, SO RESTART
WAR         08/13/80    20:30:38    PDP-9/GRAPHIC II VERSION OF SPACEWAR                                            PAGE  27

                                            OBJECT MANAGEMENT ROUTINES -- COLLISION CHECKING

                    1045    *       
                    1046    *       
                    1047    *       CHECK FOR COLLISION OF EVERY OBJECT WITH EVERY OTHER OBJECT
                    1048    *       
    001235  224070  1049    BUMP1   LAC     SQTRAN,I        GET AN ENTRY OUT OF TRANSFER VECTOR
                    1050                    
    001236  741200  1051            SNA     
    001237  601320  1052            JMP     NEXT            GO AND BUMP ALL THE POINTERS IF NOTHING IS THERE
                    1053                    
    001240  741100  1054            SPA     
    001241  601315  1055            JMP     GOTOIT          IF THE ENTRY IS NEGATIVE, THE OBJECT IS EITHER EXPLODING OR WARPED
                    1056                    
    001242  204070  1057            LAC     SQTRAN          GET A POINTER TO THE TRANSFER VECTOR
    001243  040015  1058            DAC     X5
                    1059                    
    001244  204071  1060            LAC     SQXLOC          GET A POINTER TO THE X LOCATION
    001245  040016  1061            DAC     X6
                    1062                    
    001246  204072  1063            LAC     SQYLOC          GET A POINTER TO THE Y LOCATION
    001247  040017  1064            DAC     X7
                    1065                    
    001250  506015  1066            AND     (8.*1024.-1)    EXTRACT ADDRESS BITS
    001251  306017  1067            ADD     (-SXYLOC-NUMOBJ) SUBTRACT THE END OF THE TABLE
    001252  043530  1068            DAC     TEMP0           TO GET THE NUMBER OF ENTRIES TO CHECK
                    1069                    
    001253  443530  1070    BUMP2   ISZ     TEMP0           INCREMENT COUNT OF OBJECTS CHECKED
    001254  741000  1071            SKP                     SKIP IF MORE OBJECTS TO CHECK
    001255  601303  1072            JMP     BUMP5           JUMP IF NO MORE OBJECTS TO CHECK
                    1073                    
    001256  220015  1074            LAC     X5,I            GET THE NEXT ENTRY IN THE TRANSFER VECTOR
    001257  741300  1075            SPA!SNA                 IF IT'S NEGATIVE, IT'S NOT REALLY THERE
    001260  601300  1076            JMP     BUMP3           SO GO BUMP THE REST OF THE POINTER
                    1077                    
    001261  220016  1078            LAC     X6,I            GET THE X LOCATION OF ANOTHER OBJECT
    001262  740001  1079            CMA                     COMPLEMENT IT
    001263  324071  1080            ADD     SQXLOC,I        SUBTRACT IT FROM THE X LOCATION OF THE OBJECT UNDER SCRUTINY
    001264  664000  1081            GSM                     GET THE MAGNITUDE OF THE DISTANCE BETWEEN THEM
    001265  300551  1082            ADD     SHPSZ           SUBTRACT THE SIZE OF THE OBJECT UNDER SCRUTINY
    001266  740100  1083            SMA                     ARE THEY CLOSE ENOUGH TO COLLIDE?
    001267  601301  1084            JMP     BUMP4           NO
                    1085                    
    001270  220017  1086            LAC     X7,I            GET THE Y LOCATION OF ANOTHER OBJECT
    001271  740001  1087            CMA                     COMPLEMENT IT
    001272  324072  1088            ADD     SQYLOC,I        SUBTRACT IT FROM THE X LOCATION OF THE OBJECT UNDER SCRUTINY
    001273  664000  1089            GSM                     GET THE MAGNITUDE OF THE DISTANCE BETWEEN THEM
    001274  300551  1090            ADD     SHPSZ           SUBTRACT THE SIZE OF THE OBJECT UNDER SCRUTINY
    001275  740100  1091            SMA                     ARE THEY CLOSE ENOUGH TO COLLIDE?
    001276  601253  1092            JMP     BUMP2           NO
                    1093                    
    001277  601407  1094            JMP     ZONK            YES, SO GO ZONK BOTH OBJECTS
WAR         08/13/80    20:30:38    PDP-9/GRAPHIC II VERSION OF SPACEWAR                                            PAGE  28

                                            OBJECT MANAGEMENT ROUTINES -- COLLISION CHECKING

    001300  440016  1096    BUMP3   ISZ     X6              BUMP THE X LOCATION POINTER
                    1097                    
    001301  440017  1098    BUMP4   ISZ     X7              BUMP THE Y LOCATION POINTER
                    1099                    
    001302  601253  1100            JMP     BUMP2           AND GO CHECK THE NEXT OBJECT
                    1101    *       
                    1102    *       
                    1103    *       CHECK FOR COLLISION OF THE OBJECT CURRENTLY UNDER SCRUTINY WITH THE SUN
                    1104    *       
    001303  224071  1105    BUMP5   LAC     SQXLOC,I        GET THE X LOCATION
    001304  664000  1106            GSM                     ITS MAGNITUDE
    001305  043530  1107            DAC     TEMP0           SAVE IT
                    1108                    
    001306  224072  1109            LAC     SQYLOC,I        GET THE Y LOCATION
    001307  664000  1110            GSM                     ITS MAGNITUDE
    001310  303530  1111            ADD     TEMP0           ADD THE X LOCATION
    001311  744020  1112            RCR                     DIVIDE BY TWO
    001312  300550  1113            ADD     SUNSZ           SUBTRACT THE SIZE OF THE SUN
    001313  741100  1114            SPA                     IS IT CLOSE ENOUGH TO COLLIDE?
    001314  601432  1115            JMP     KILL            YES
                    1116                                    NO, SO FALL INTO THIS PARTICULAR OBJECT'S MANAGEMENT ROUTINE
                    1117    *       
                    1118    *       
                    1119    *       CALL IN THE MANAGEMENT ROUTINE ASSOCIATED WITH THIS OBJECT
                    1120    *       
    001315  224070  1121    GOTOIT  LAC     SQTRAN,I        GET THE ADDRESS OF THE SUBROUTINE
    001316  043530  1122            DAC     TEMP0           SAVE IT TO TRANSFER THROUGH
    001317  623530  1123            JMP     TEMP0,I         NOW TRANSFER THROUGH IT
WAR         08/13/80    20:30:38    PDP-9/GRAPHIC II VERSION OF SPACEWAR                                            PAGE  29

                                            OBJECT MANAGEMENT ROUTINES -- COLLISION CHECKING

    001320  204070  1125    NEXT    LAC     SQTRAN          GET THE TRANSFER VECTOR ENTRY FOR THE LAST OBJECT
    001321  506015  1126            AND     (8*1024.-1)     EXTRACT ADDRESS BITS
    001322  346020  1127            TAD     (-SXTRAN-NUMSHP) END OF SHIP ENTRIES
    001323  741100  1128            SPA                     SEE IF THIS OBJECT IS A BULLET
    001324  601331  1129            JMP     NEXT1           NO, IT IS A SHIP
                    1130                    
    001325  206013  1131            LAC     (X$DTAB-1)      ASSUME THAT THE NORMAL HANDICAP TABLE IS TO BE USED
    001326  543527  1132            SAD     HANDI           SEE IF IT'S ALREADY IN USE ANYWAY
    001327  601351  1133            JMP     NEXT3           NO NEED TO COPY IT OVER IF SO
                    1134                    
    001330  601337  1135            JMP     NEXT2
                    1136                    
    001331  203413  1137    NEXT1   LAC     SWITCH          GET BACK THE SWITCHES
    001332  506007  1138            AND     (000200)        SEE IF SWITCH 10 SET
    001333  741200  1139            SNA                     YES, MUST INCREMENT TABLE POINTER
    001334  601351  1140            JMP     NEXT3           NO, JUST USE NORMAL TABLE
                    1141                    
    001335  206010  1142            LAC     (100)           INCREMENT HANDICAP TABLE POINTER
    001336  303527  1143            ADD     HANDI
                    1144                    
    001337  043527  1145    NEXT2   DAC     HANDI           UPDATE HANDICAP TABLE POINTER
    001340  040016  1146            DAC     X6              SET UP AN AUTOINDEX REGISTER
                    1147                    
    001341  760517  1148            LAW     DTAB-1          GET A POINTER TO THE TABLE THE PROGRAM USES
    001342  040017  1149            DAC     X7
                    1150                    
    001343  777733  1151            LAW     -RTIME+DTAB-1   GET THE COMPLEMENT OF THE SIZE FOR USE AS A COUNTER
    001344  043530  1152            DAC     TEMP0           USE A TEMPORARY TO HOLD THE COUNTER
                    1153                    
    001345  220016  1154            LAC     X6,I            ***
    001346  060017  1155            DAC     X7,I            * COPY OVER THE APPROPRIATE TABLE
    001347  443530  1156            ISZ     TEMP0           ***
    001350  601345  1157            JMP     .-3
WAR         08/13/80    20:30:38    PDP-9/GRAPHIC II VERSION OF SPACEWAR                                            PAGE  30

                                            OBJECT MANAGEMENT ROUTINES -- COLLISION CHECKING

    001351  444070  1159    NEXT3   ISZ     SQTRAN
    001352  444071  1160            ISZ     SQXLOC
    001353  444072  1161            ISZ     SQYLOC
    001354  444073  1162            ISZ     SQXVEL
    001355  444074  1163            ISZ     SQYVEL
    001356  444075  1164            ISZ     SQTIME
    001357  444076  1165            ISZ     SQDIST
                    1166                    
    001360  443534  1167            ISZ     OBJCNT          SEE IF DONE COLLISION CHECKING
                    1168                    
    001361  740040  1169    DONE    HLT                     NO, PROCEED TO CHECK NEXT OBJECT
                    1170                    
    001362  601604  1171            JMP     TWINKL          YES, GO FORM THE SUN, MOVE THE STARS, AND WAIT
                    1172                    
    001363  444077  1173            ISZ     SQANGL
    001364  444100  1174            ISZ     SQROLL
    001365  444101  1175            ISZ     SQFUEL
    001366  444102  1176            ISZ     SQBULL
    001367  444103  1177            ISZ     SQPICP
    001370  444104  1178            ISZ     SQPICN
    001371  444105  1179            ISZ     SQWTIM
    001372  444106  1180            ISZ     SQWFAC
    001373  444107  1181            ISZ     SQINVF
    001374  444110  1182            ISZ     SQINVT
    001375  444111  1183            ISZ     SQDAMS
    001376  444112  1184            ISZ     SQTTIM
    001377  444113  1185            ISZ     SQBTIM
    001400  444114  1186            ISZ     SQLTIM
    001401  444115  1187            ISZ     SQRTIM
                    1188                    
    001402  443535  1189            ISZ     SHPCNT          SEE IF DONE CHECKING SHIPS
                    1190                    
    001403  601235  1191            JMP     BUMP1           NO, CONTINUE UPDATING POINTERS USED FOR SHIPS ONLY
                    1192                    
    001404  206021  1193            LAC     (JMP BUMP1)     YES, SO DON'T BOTHER UPDATING POINTERS USED FOR SHIPS ONLY
    001405  041361  1194            DAC     DONE
                    1195                    
    001406  601235  1196            JMP     BUMP1           AND CONTINUE COLLISION CHECKING FOR BULLETS ON SCREEN
WAR         08/13/80    20:30:38    PDP-9/GRAPHIC II VERSION OF SPACEWAR                                            PAGE  31

                                            OBJECT MANAGEMENT ROUTINES -- COLLISION CHECKING

    001407  200015  1198    ZONK    LAC     X5              SET UP A POINTER TO THE TRANSFER VECTOR
    001410  043530  1199            DAC     TEMP0
                    1200                    
    001411  306022  1201            ADD     (SXTIME-SXTRAN) SET UP A POINTER TO THE TIMER
    001412  043531  1202            DAC     TEMP1
                    1203                    
    001413  223530  1204            LAC     TEMP0,I         GET THE TRANSFER VECTOR ENTRY FOR THIS OBJECT
    001414  506023  1205            AND     (-8.*1024.-400000) CLEAR OUT OLD MANAGEMENT ROUTINE ADDRESS
    001415  306024  1206            ADD     (BLOWUP+400000) REPLACE IT WITH THE ADDRESS OF THE EXPLOSION ROUTINE
    001416  063530  1207            DAC     TEMP0,I         PLUS THE BIT SIGNIFYING NON-EXISTENCE OF THE OBJECT
                    1208                    
    001417  506025  1209            AND     (-400000-1)     REMOVE THE SIGN BIT FOR UPCOMING SHIFT
    001420  660515  1210            LRSS    18.-1-4         RIGHT JUSTIFY THE TYPE BITS IN AC
    001421  306026  1211            ADD     (3)             ADD THREE
    001422  740001  1212            CMA                     TO GET THE AMOUNT OF TIME THIS EXPLOSION IS TO LAST
    001423  063531  1213            DAC     TEMP1,I         AND PUT IT IN THE TIMER CELL
                    1214                    
    001424  223530  1215            LAC     TEMP0,I         GET BACK THE TRANSFER VECTOR ENTRY FOR THIS OBJECT
    001425  505774  1216            AND     (300000)        EXTRACT TYPE BITS
    001426  741200  1217            SNA                     SKIP IF SHIP
    001427  601453  1218            JMP     MAIM            JUMP IF BULLET
                    1219                    
    001430  443536  1220            ISZ     NSHIP           DECREMENT COUNTER OF SURVIVING SHIPS
    001431  740000  1221            NOP     
                    1222                    
                    1223                    
    001432  224070  1224    KILL    LAC     SQTRAN,I        GET TRANSFER VECTOR ENTRY FOR THIS OBJECT
    001433  505774  1225            AND     (300000)        EXTRACT TYPE BITS
    001434  741200  1226            SNA                     SKIP IF SHIP
    001435  601441  1227            JMP     KILL1           JUMP IF BULLET
                    1228                    
    001436  164102  1229            DZM     SQBULL,I        WIPE OUT ITS BULLETS
                    1230                    
    001437  443536  1231            ISZ     NSHIP           COUNT SHIP BLOWN UP
    001440  740000  1232            NOP     
                    1233                    
    001441  224070  1234    KILL1   LAC     SQTRAN,I        GET THE TRANSFER VECTOR ENTRY FOR THIS OBJECT
    001442  506023  1235            AND     (-8.*1024.-400000) CLEAR OUT OLD MANAGEMENT ROUTINE ADDRESS
    001443  306024  1236            ADD     (BLOWUP+400000) REPLACE IT WITH THE ADDRESS OF THE EXPLOSION ROUTINE
    001444  064070  1237            DAC     SQTRAN,I        PLUS THE BIT SIGNIFYING NON-EXISTENCE OF THE OBJECT
                    1238                    
    001445  506025  1239            AND     (-400000-1)     REMOVE THE SIGN BIT FOR UPCOMING SHIFT
    001446  660515  1240            LRSS    18.-1-4         RIGHT JUSTIFY THE TYPE BITS IN AC
    001447  306026  1241            ADD     (3)             ADD THREE
    001450  740001  1242            CMA                     TO GET THE AMOUNT OF TIME THIS EXPLOSION IS TO LAST
    001451  064075  1243            DAC     SQTIME,I        AND PUT IT IN THE TIMER CELL
                    1244                    
    001452  601315  1245            JMP     GOTOIT          AND GO TO IT
WAR         08/13/80    20:30:38    PDP-9/GRAPHIC II VERSION OF SPACEWAR                                            PAGE  32

                                            OBJECT MANAGEMENT ROUTINES -- COLLISION CHECKING

    001453  203413  1247    MAIM    LAC     SWITCH          GET BACK THE SWITCHES
    001454  506027  1248            AND     (004000)        ***
    001455  741200  1249            SNA                     * SEE IF PARTIAL DAMAGE FEATURE IS DESIRED
    001456  601432  1250            JMP     KILL            ***
                    1251                    
    001457  103265  1252    MAIM1   JMS     RANDOM          GET A PSEUDO-RANDOM NUMBER
    001460  506030  1253            AND     (17)            NARROW ITS RANGE
    001461  306031  1254            ADD     (DTAB)          SET UP FOR RANDOM SELECTION FROM BIT TABLE
    001462  043530  1255            DAC     TEMP0           SET UP FOR INDIRECT
    001463  223530  1256            LAC     TEMP0,I         GET BITS CODING SWITCHES TO BE DISABLED
                    1257                    
    001464  546032  1258            SAD     (777777)        FIRST CHECK FOR TOTAL DESTRUCTION
    001465  601432  1259            JMP     KILL
                    1260                    
    001466  524111  1261            AND     SQDAMS,I        AND OUT PREVIOUSLY DISABLED SWITCHES
    001467  506033  1262            AND     (-001000-1)     REMOVE INCIDENTAL DAMAGES FROM CONSIDERATION
    001470  743210  1263            SNA!RTL                 AND SEE IF IT'S LEFT
    001471  601457  1264            JMP     MAIM1           IF IT'S GONE, TRY TO DAMAGE SOMETHING ELSE
                    1265                    
    001472  740410  1266            SNL!RAL                 SEE IF LEFT TURN DISABLEMENT
    001473  601477  1267            JMP     MAIM2           NO
                    1268                    
    001474  200563  1269            LAC     LTIME           GET TIMER FOR LEFT TURN RESTORATION
    001475  064114  1270            DAC     SQLTIM,I        START IT TICKING
                    1271                    
    001476  601523  1272            JMP     MAIM5
                    1273                    
    001477  740410  1274    MAIM2   SNL!RAL                 SEE IF RIGHT TURN DISABLEMENT
    001500  601504  1275            JMP     MAIM3           NO
                    1276                    
    001501  200564  1277            LAC     RTIME           GET TIMER FOR RIGHT TURN RESTORATION
    001502  064115  1278            DAC     SQRTIM,I        START IT TICKING
                    1279                    
    001503  601523  1280            JMP     MAIM5
                    1281                    
    001504  740410  1282    MAIM3   SNL!RAL                 SEE IF THRUST DISABLEMENT
    001505  601514  1283            JMP     MAIM4           NO
                    1284                    
    001506  224101  1285            LAC     SQFUEL,I        SEE IF FUEL HAS RUN OUT
    001507  741200  1286            SNA                     NO
    001510  601457  1287            JMP     MAIM1           YES, NO SENSE DISABLING THRUST IN THAT CASE
                    1288                    
    001511  200561  1289            LAC     TTIME           GET TIMER FOR THRUST RESTORATION
    001512  064112  1290            DAC     SQTTIM,I        START IT TICKING
                    1291                    
    001513  601523  1292            JMP     MAIM5
                    1293                    
    001514  740400  1294    MAIM4   SNL                     SEE IF BULLET-FIRING DISABLEMENT
    001515  601523  1295            JMP     MAIM5           NO
                    1296                    
    001516  224102  1297            LAC     SQBULL,I        SEE IF BULLET SUPPLY HAS BEEN EXHAUSTED
    001517  741200  1298            SNA                     NO
WAR         08/13/80    20:30:38    PDP-9/GRAPHIC II VERSION OF SPACEWAR                                            PAGE  33

                                            OBJECT MANAGEMENT ROUTINES -- COLLISION CHECKING

    001520  601457  1299            JMP     MAIM1           YES, NO SENSE DISABLING BULLETS IN THAT CASE
                    1300                    
    001521  200562  1301            LAC     BTIME           GET TIMER FOR BULLET RESTORATION
    001522  064113  1302            DAC     SQBTIM,I        START IT TICKING
                    1303                    
    001523  224111  1304    MAIM5   LAC     SQDAMS,I        GET PREVIOUSLY DISABLED SWITCHES
    001524  263530  1305            XOR     TEMP0,I         DISABLE ANOTHER ONE
    001525  506034  1306            AND     (-010000-1)     DISABLE INVISIBILITY
    001526  064111  1307            DAC     SQDAMS,I        UPDATE
                    1308                    
    001527  601315  1309            JMP     GOTOIT          AND EXIT
WAR         08/13/80    20:30:38    PDP-9/GRAPHIC II VERSION OF SPACEWAR                                            PAGE  34

                                            OBJECT MANAGEMENT ROUTINES -- EXPLOSIONS

    001530  224070  1311    BLOWUP  LAC     SQTRAN,I        ***
    001531  506025  1312            AND     (-400000-1)     * CALCULATE THE SIZE OF THE EXPLOSION
    001532  660517  1313            LRSS    18.-3           ***
    001533  043530  1314            DAC     TEMP0
                    1315                    
    001534  660602  1316            LLSS    2               ***
    001535  660703  1317            ALSS    3               * CALCULATE THE DENSITY OF THE EXPLOSION
    001536  740001  1318            CMA                     ***
    001537  043531  1319            DAC     TEMP1
                    1320                    
    001540  206035  1321            LAC     (040006)        PUT A 'SET INTENSITY 2' COMMAND IN THE SCOPE BUFFER
    001541  060010  1322            DAC     X0,I
                    1323                    
    001542  103265  1324    BLOW1   JMS     RANDOM          GET A PSEUDO-RANDOM NUMBER
    001543  506026  1325            AND     (3)             ***
    001544  303530  1326            ADD     TEMP0           * GENERATE AN 'ALSS' INSTRUCTION
    001545  306036  1327            ADD     (ALSS 0)        ***
    001546  043532  1328            DAC     TEMP2
                    1329                    
    001547  203274  1330            LAC     RND             GET BACK THE PSEUDO-RANDOM NUMBER
    001550  660512  1331            LRSS    10.             ***
    001551  403532  1332            XCT     TEMP2           * GENERATE A RANDOM X LOCATION FOR THIS POINT
    001552  324071  1333            ADD     SQXLOC,I        ***
    001553  043353  1334            DAC     XLOC
                    1335                    
    001554  641002  1336            LACQ                    GET BACK THE PSEUDO-RANDOM NUMBER
    001555  660512  1337            LRSS    10.             ***
    001556  403532  1338            XCT     TEMP2           * GENERATE A RANDOM Y LOCATION FOR THIS POINT
    001557  324072  1339            ADD     SQYLOC,I        ***
    001560  043354  1340            DAC     YLOC
                    1341                    
    001561  103340  1342            JMS     SCOPE           DISPLAY ANOTHER POINT ON THE SCOPE
                    1343                    
    001562  443531  1344            ISZ     TEMP1           INCREMENT THE NUMBER OF POINTS WE GENERATED
    001563  601542  1345            JMP     BLOW1           RETURN FOR MORE
                    1346                    
    001564  464075  1347            ISZ     SQTIME,I        WHEN THE TIMER TIMES OUT, WE
    001565  601320  1348            JMP     NEXT
                    1349                    
    001566  164070  1350            DZM     SQTRAN,I        ZERO OUT SLOT IN TRANSFER VECTOR
    001567  601320  1351            JMP     NEXT            AND RETURN
WAR         08/13/80    20:30:38    PDP-9/GRAPHIC II VERSION OF SPACEWAR                                            PAGE  35

                                            BULLET MANAGEMENT ROUTINE

                    1353    *       
                    1354    *       
                    1355    *       BULLET MANAGEMENT ROUTINE
                    1356    *       
    001570  103002  1357    BULLET  JMS     GRAV            CALCULATE THE EFFECT OF GRAVITY ON THE BULLET
                    1358    *       
                    1359    *       
                    1360    *       REDUCE VELOCITY BY GRAVITY AND FRICTION FACTORS
                    1361    *       
    001571  102363  1362            JMS     UPDATE          REDUCE VELOCITY BY GRAVITY AND FRICTION FACTORS
                    1363    *       
                    1364    *       
                    1365    *       UPDATE THE POSITION OF THE BULLET ON THE SCREEN
                    1366    *       
    001572  224071  1367            LAC     SQXLOC,I        GET X LOCATION
    001573  043353  1368            DAC     XLOC
                    1369                    
    001574  224072  1370            LAC     SQYLOC,I        GET Y LOCATION
    001575  043354  1371            DAC     YLOC
                    1372                    
    001576  206037  1373            LAC     (040007)        PUT A 'SET INTENSITY 3' COMMAND IN THE SCOPE BUFFER
    001577  060010  1374            DAC     X0,I
                    1375                    
    001600  103340  1376            JMS     SCOPE           AND PUT THE POINT ON THE SCOPE
                    1377    *       
                    1378    *       
                    1379    *       DESTROY THE BULLET IF IT TIMES OUT
                    1380    *       
    001601  464075  1381            ISZ     SQTIME,I        INCREMENT THE BULLET TIMER
    001602  601320  1382            JMP     NEXT
                    1383                    
    001603  601441  1384            JMP     KILL1           AND DESTROY IT IF IT TIMES OUT
WAR         08/13/80    20:30:38    PDP-9/GRAPHIC II VERSION OF SPACEWAR                                            PAGE  36

                                            SUN    MANAGEMENT ROUTINE

                    1386    *       
                    1387    *       
                    1388    *       SUN MANAGEMENT ROUTINE
                    1389    *       
    001604  206037  1390    TWINKL  LAC     (040007)        PUT A 'SET INTENSITY 3' COMMAND IN THE SCOPE BUFFER
    001605  060010  1391            DAC     X0,I
                    1392                    
    001606  143353  1393            DZM     XLOC            ZERO X-COORDINATE
    001607  143354  1394            DZM     YLOC            ZERO Y-COORDINATE
                    1395                    
    001610  103340  1396            JMS     SCOPE           DRAW THE POINT IN THE CENTER
                    1397                    
    001611  206035  1398            LAC     (040006)        PUT A 'SET INTENSITY 2' COMMAND IN THE SCOPE BUFFER
    001612  060010  1399            DAC     X0,I
                    1400                    
    001613  103265  1401            JMS     RANDOM          GET A PSEUDO-RANDOM NUMBER
    001614  506040  1402            AND     (004747)        MASK TO 'SHORT VECTOR' X AND Y COMPONENTS
    001615  246041  1403            XOR     (220000)        OR IN THE 'DRAW SHORT VECTOR' COMMAND
    001616  060010  1404            DAC     X0,I            PUT THE RESULTANT COMMAND IN THE SCOPE BUFFER
                    1405                    
    001617  206037  1406            LAC     (040007)        PUT A 'SET INTENSITY 3' COMMAND IN THE SCOPE BUFFER
    001620  060010  1407            DAC     X0,I
                    1408                    
    001621  103340  1409            JMS     SCOPE           REDRAW THE POINT IN THE CENTER
                    1410                    
    001622  206035  1411            LAC     (040006)        PUT A 'SET INTENSITY 2' COMMAND IN THE SCOPE BUFFER
    001623  060010  1412            DAC     X0,I
                    1413                    
    001624  203274  1414            LAC     RND             GET BACK THE PSEUDO-RANDOM NUMBER
    001625  506040  1415            AND     (004747)        MASK TO 'SHORT VECTOR' X AND Y COMPONENTS
    001626  246042  1416            XOR     (224040)        OR IN THE 'DRAW SHORT VECTOR' COMMAND
    001627  060010  1417            DAC     X0,I            PUT THE RESULTANT COMMAND IN THE SCOPE BUFFER
                    1418                    
                    1419                    
    001630  205776  1420            LAC     (400000)        ***
    001631  303520  1421            ADD     PSCBUF          * LINK THE STAR SCOPE BUFFER ONTO THE END OF THE CURRENT SCOPE BUFFER
    001632  060010  1422            DAC     X0,I            ***
                    1423                    
    001633  203526  1424            LAC     OFFSET          ***
    001634  740001  1425            CMA                     * FLIP THE OFFSET -- EFFECTIVELY SWAP SCOPE BUFFERS
    001635  043526  1426            DAC     OFFSET          ***
                    1427                    
    001636  323523  1428            ADD     STREND,I        AND ADD IT TO THE STAR BUFFER TRAP WORD
    001637  063523  1429            DAC     STREND,I        SO THAT IT POINTS TO THE BUFFER WE JUST WROTE
WAR         08/13/80    20:30:38    PDP-9/GRAPHIC II VERSION OF SPACEWAR                                            PAGE  37

                                            STAR   MANAGEMENT ROUTINE

                    1431    *       
                    1432    *       
                    1433    *       STAR MANAGEMENT ROUTINE
                    1434    *       
    001640  443540  1435            ISZ     STIMER          HAS TIMER TIMED OUT YET?
    001641  600003  1436            JMP     THREE           NO, DON'T MOVE THE STARS UNTIL IT DOES
                    1437                    
    001642  777757  1438            LAW     -16.-1          INITIALIZE THE STAR TIMER
    001643  043540  1439            DAC     STIMER
                    1440                    
    001644  443541  1441            ISZ     SRANGE          INCREMENT X-COORDINATE RANGE
    001645  740000  1442            NOP     
                    1443                    
    001646  203521  1444            LAC     PSBUF1          GET A POINTER TO THE STAR SCOPE BUFFER
    001647  040011  1445            DAC     X1
                    1446    *       
                    1447    *       
                    1448    *       MOVE THE STARS FROM LEFT TO RIGHT ON THE SCREEN
                    1449    *       
    001650  460011  1450    STARS1  ISZ     X1,I            MOVE A STAR FROM LEFT TO RIGHT
                    1451                    
    001651  440011  1452            ISZ     X1              BUMP STAR TABLE POINTER
    001652  440011  1453            ISZ     X1
                    1454                    
    001653  200011  1455    STARS2  LAC     X1              GET BACK POINTER TO STAR TABLE
    001654  543522  1456            SAD     PSBUF2          SEE IF AT BEGINNING OF STAR SCOPE BUFFER
    001655  601665  1457            JMP     STARS3          YES
                    1458                    
    001656  543523  1459            SAD     STREND          SEE IF AT END OF STAR SCOPE BUFFER
    001657  741000  1460            SKP                     YES
    001660  601650  1461            JMP     STARS1          NO, CONTINUE
                    1462                    
    001661  203520  1463            LAC     PSCBUF          ***
    001662  040011  1464            DAC     X1              * RESET POINTER TO STAR SCOPE BUFFER
    001663  440011  1465            ISZ     X1              ***
                    1466                    
    001664  601653  1467            JMP     STARS2          AND THEN CONTINUE
WAR         08/13/80    20:30:38    PDP-9/GRAPHIC II VERSION OF SPACEWAR                                            PAGE  38

                                            STAR   MANAGEMENT ROUTINE

                    1469    *       
                    1470    *       
                    1471    *       MOVE STARS OFF RIGHT EDGE OF SCREEN
                    1472    *       
    001665  203521  1473    STARS3  LAC     PSBUF1          ***
    001666  043530  1474            DAC     TEMP0           * GET A POINTER TO THE STAR SCOPE BUFFER
    001667  443530  1475            ISZ     TEMP0           ***
                    1476                    
    001670  223530  1477            LAC     TEMP0,I         GET A STAR
    001671  506005  1478            AND     (2000)          COMPARE X-COORDINATE WITH WIDTH OF SCREEN
    001672  741200  1479            SNA                     TO SEE IF MOVING OFF RIGHT EDGE OF SCREEN
    001673  601713  1480            JMP     STARS4          NO
                    1481                    
    001674  205774  1482            LAC     (300000)        YES
                    1483                    
    001675  063521  1484            DAC     PSBUF1,I        CLEAR OUT 'SET INTENSITY' SCOPE COMMAND
    001676  443521  1485            ISZ     PSBUF1
                    1486                    
    001677  063521  1487            DAC     PSBUF1,I        CLEAR OUT 'MOVE TO X' SCOPE COMMAND
    001700  443521  1488            ISZ     PSBUF1
                    1489                    
    001701  063521  1490            DAC     PSBUF1,I        CLEAR OUT 'MOVE TO Y' SCOPE COMMAND
    001702  443521  1491            ISZ     PSBUF1
                    1492                    
    001703  203521  1493            LAC     PSBUF1          GET BACK POINTER
    001704  543523  1494            SAD     STREND          SEE IF AT END OF STAR SCOPE BUFFER
    001705  741000  1495            SKP                     YES
    001706  601665  1496            JMP     STARS3          NO, CONTINUE CHECKING FOR EXPIRED STARS
                    1497                    
    001707  203520  1498            LAC     PSCBUF          ***
    001710  043521  1499            DAC     PSBUF1          * RESET POINTER TO STAR SCOPE BUFFER
    001711  443521  1500            ISZ     PSBUF1          ***
                    1501                    
    001712  601665  1502            JMP     STARS3          AND THEN CONTINUE CHECKING FROM THE BEGINNING
WAR         08/13/80    20:30:38    PDP-9/GRAPHIC II VERSION OF SPACEWAR                                            PAGE  39

                                            STAR   MANAGEMENT ROUTINE

                    1504    *       
                    1505    *       
                    1506    *       MOVE STARS ONTO LEFT EDGE OF SCREEN
                    1507    *       
    001713  223542  1508    STARS4  LAC     PSTABL,I        GET X-COORDINATE
    001714  303541  1509            ADD     SRANGE          SEE IF ON SCOPE
    001715  741100  1510            SPA     
    001716  600003  1511            JMP     THREE           NO, DONE, EXIT
                    1512                    
    001717  043530  1513            DAC     TEMP0           SAVE X-COORDINATE
                    1514                    
    001720  443542  1515            ISZ     PSTABL          INCREMENT STAR TABLE POINTER
                    1516                    
    001721  223542  1517            LAC     PSTABL,I        GET Y-COORDINATE AND INTENSITY
    001722  443542  1518            ISZ     PSTABL          INCREMENT STAR TABLE POINTER
    001723  673603  1519            LMQ!EAECLA!LLSS 3       RIGHT JUSTIFY INTENSITY IN AC
    001724  246000  1520            XOR     (040000)        OR IN SCOPE COMMAND
    001725  063522  1521            DAC     PSBUF2,I        PUT IN STAR SCOPE BUFFER
    001726  443522  1522            ISZ     PSBUF2          INCREMENT STAR SCOPE BUFFER POINTER
                    1523                    
    001727  203530  1524            LAC     TEMP0           GET BACK X-COORDINATE
    001730  246001  1525            XOR     (140000)        OR IN SCOPE COMMAND
    001731  063522  1526            DAC     PSBUF2,I        PUT IN STAR SCOPE BUFFER
    001732  443522  1527            ISZ     PSBUF2          INCREMENT STAR SCOPE BUFFER POINTER
                    1528                    
    001733  661617  1529            EAECLA!LLSS 18.-3       GET BACK Y-COORDINATE
    001734  246002  1530            XOR     (174000)        OR IN SCOPE COMMAND
    001735  063522  1531            DAC     PSBUF2,I        PUT IN STAR SCOPE BUFFER
    001736  443522  1532            ISZ     PSBUF2          INCREMENT STAR SCOPE BUFFER POINTER
                    1533                    
    001737  203522  1534            LAC     PSBUF2          ***
    001740  543523  1535            SAD     STREND          * SEE IF AT END OF STAR SCOPE BUFFER
    001741  741000  1536            SKP                     ***
    001742  601746  1537            JMP     STARS5          NO
                    1538                    
    001743  203520  1539            LAC     PSCBUF          ***
    001744  043522  1540            DAC     PSBUF2          * YES, RESET POINTER TO BEGINNING OF STAR SCOPE BUFFER
    001745  443522  1541            ISZ     PSBUF2          ***
                    1542                    
    001746  203542  1543    STARS5  LAC     PSTABL          ***
    001747  545770  1544            SAD     ENDTAB          * SEE IF AT END OF STAR TABLE
    001750  741000  1545            SKP                     ***
    001751  601713  1546            JMP     STARS4          ***
    001752  206043  1547            LAC     (STABLE)        * YES, RESET POINTER TO BEGINNING OF STAR TABLE
    001753  043542  1548            DAC     PSTABL          ***
                    1549                    
    001754  203541  1550            LAC     SRANGE          ***
    001755  306044  1551            ADD     (-8.*1024.-1)   * REINITIALIZE X-COORDINATE RANGE
    001756  043541  1552            DAC     SRANGE          ***
                    1553                    
    001757  601713  1554            JMP     STARS4
WAR         08/13/80    20:30:38    PDP-9/GRAPHIC II VERSION OF SPACEWAR                                            PAGE  40

                                            SHIP   MANAGEMENT ROUTINES

                    1556    *       
                    1557    *       
                    1558    *       SHIP 1 MANAGEMENT ROUTINE
                    1559    *       
    001760  103357  1560    S1SHIP  JMS     BUTTIN          GET THE PUSHBUTTONS FOR SHIP 1
    001761  601766  1561            JMP     SXSHIP-1
                    1562    *       
                    1563    *       
                    1564    *       SHIP 2 MANAGEMENT ROUTINE
                    1565    *       
    001762  103357  1566    S2SHIP  JMS     BUTTIN          GET THE PUSHBUTTONS FOR SHIP 2
    001763  601767  1567            JMP     SXSHIP
                    1568    *       
                    1569    *       
                    1570    *       SHIP 3 MANAGEMENT ROUTINE
                    1571    *       
    001764  203413  1572    S3SHIP  LAC     SWITCH          GET BACK THE SWITCHES
    001765  740001  1573            CMA                     INVERT
    001766  640714  1574            ALS     12.             GET THE PUSHBUTTONS FOR SHIP 3
                    1575    *       
                    1576    *       
                    1577    *       SHIP   MANAGEMENT ROUTINE
                    1578    *       
    001767  043415  1579    SXSHIP  DAC     BUTINS          SAVE THE PUSHBUTTONS
                    1580                    
    001770  206045  1581            LAC     (JMP FIRE)      GET AN APPROPRIATE INSTRUCTION TO PUT
    001771  042246  1582            DAC     DRAWJ           IN SUCH A PLACE AS NOT TO PRINT A JET ON THE SHIP
                    1583                    
    001772  464075  1584            ISZ     SQTIME,I        INCREMENT THE BULLET INTERVAL TIMER
    001773  740000  1585            NOP     
                    1586                    
    001774  464105  1587            ISZ     SQWTIM,I        INCREMENT THE AMOUNT OF TIME UNTIL NEXT POSSIBLE WARP TIMER
    001775  740000  1588            NOP     
                    1589                    
    001776  203413  1590            LAC     SWITCH          GET BACK THE SWITCHES
    001777  740001  1591            CMA                     INVERT
                    1592                    
    002000  506046  1593            AND     (770000)        SAVE JUST THE DISABLE BITS
    002001  503415  1594            AND     BUTINS          GET ONLY THE PERMITTED PUSHBUTTONS
    002002  524111  1595            AND     SQDAMS,I        TAKE INTO ACCOUNT INDIVIDUAL DISABILITIES
                    1596                    
    002003  043415  1597            DAC     BUTINS          SAVE THE PERMITTED PUSHBUTTONS FOR OTHER ROUTINES
WAR         08/13/80    20:30:38    PDP-9/GRAPHIC II VERSION OF SPACEWAR                                            PAGE  41

                                            SHIP   MANAGEMENT ROUTINES -- WARP

                    1599    *       
                    1600    *       
                    1601    *       CHECK FOR WARP
                    1602    *       
    002004  741101  1603            SPA!CMA                 SEE IF THE PLAYER SEEKS TO ESCAPE FROM REALITY
                    1604                    
    002005  224105  1605            LAC     SQWTIM,I        ***
    002006  741100  1606            SPA                     * CHECK AMOUNT OF TIME BETWEEN WARP TO SEE IF IT'S PERMITTED AGAIN YET
    002007  602110  1607            JMP     VISIBL          ***
                    1608                    
    002010  224070  1609            LAC     SQTRAN,I        GET THE OLD MANAGEMENT ROUTINE ADDRESS
    002011  064105  1610            DAC     SQWTIM,I        SAVE IT
                    1611                    
    002012  762017  1612            LAW     VANISH          GET THE NEW MANAGEMENT ROUTINE ADDRESS
    002013  064070  1613            DAC     SQTRAN,I        PUT IT IN THE TRANSFER VECTOR
                    1614                    
    002014  200552  1615            LAC     WTIME           GET THE AMOUNT OF TIME THAT A WARP LASTS
    002015  064075  1616            DAC     SQTIME,I        START TIMING
                    1617                    
    002016  601320  1618            JMP     NEXT            AND RETURN
WAR         08/13/80    20:30:38    PDP-9/GRAPHIC II VERSION OF SPACEWAR                                            PAGE  42

                                            SHIP   MANAGEMENT ROUTINES -- WARP

                    1620    *       
                    1621    *       
                    1622    *       MAKE THE SHIP DISAPPEAR AND REAPPEAR ELSEWHERE
                    1623    *       
    002017  464075  1624    VANISH  ISZ     SQTIME,I        IS IT TIME TO COME BACK YET?
    002020  601320  1625            JMP     NEXT            NO, SO RETURN
                    1626                    
    002021  206047  1627            LAC     (PREVUE+300000) YES, GET THE ADDRESS OF THE WARP STAR ROUTINE
    002022  064070  1628            DAC     SQTRAN,I        AND PUT IT IN THE TRANSFER VECTOR
                    1629                    
    002023  200553  1630            LAC     STIME           GET THE AMOUNT OF TIME THAT A WARP STAR LASTS
    002024  064075  1631            DAC     SQTIME,I        PUT IT IN THE TIMER
                    1632                    
    002025  103265  1633            JMS     RANDOM          GET A PSEUDO-RANDOM NUMBER
    002026  400555  1634            XCT     WAREA           MODIFY IT ACCORDING TO THE HANDICAP TABLE
    002027  324071  1635            ADD     SQXLOC,I        ADD THE PREVIOUS X LOCATION
    002030  064071  1636            DAC     SQXLOC,I        TO GET A NEW, RANDOM X LOCATION
                    1637                    
    002031  103265  1638            JMS     RANDOM          GET A PSEUDO-RANDOM NUMBER
    002032  400555  1639            XCT     WAREA           MODIFY IT ACCORDING TO THE HANDICAP TABLE
    002033  324072  1640            ADD     SQYLOC,I        ADD THE PREVIOUS Y LOCATION
    002034  064072  1641            DAC     SQYLOC,I        TO GET A NEW, RANDOM Y LOCATION
                    1642                    
    002035  601320  1643            JMP     NEXT            AND RETURN
WAR         08/13/80    20:30:38    PDP-9/GRAPHIC II VERSION OF SPACEWAR                                            PAGE  43

                                            SHIP   MANAGEMENT ROUTINES -- WARP

                    1645    *       
                    1646    *       
                    1647    *       MAKE WARP STAR
                    1648    *       
    002036  206035  1649    PREVUE  LAC     (040006)        PUT A 'SET INTENSITY 2' COMMAND IN THE SCOPE BUFFER
    002037  060010  1650            DAC     X0,I
                    1651                    
    002040  224071  1652            LAC     SQXLOC,I        SET UP THE X LOCATION
    002041  043353  1653            DAC     XLOC
                    1654                    
    002042  224072  1655            LAC     SQYLOC,I        SET UP THE Y LOCATION
    002043  043354  1656            DAC     YLOC
                    1657                    
    002044  103340  1658            JMS     SCOPE           AND PUT THE STAR ON THE SCOPE
                    1659                    
    002045  464075  1660            ISZ     SQTIME,I        INCREMENT THE WARP STAR TIMER
    002046  601320  1661            JMP     NEXT            AND RETURN IF NON-ZERO
                    1662                    
    002047  224106  1663            LAC     SQWFAC,I        IF ZERO, GET THE OLD WARP FACTOR
    002050  300557  1664            ADD     WFACT           MODIFY IT ACCORDING TO THE HANDICAP TABLE
    002051  064106  1665            DAC     SQWFAC,I        TO GET A NEW WARP FACTOR
                    1666                    
    002052  103265  1667            JMS     RANDOM          GET A PSEUDO-RANDOM NUMBER
    002053  740100  1668            SMA                     IS IT A NEGATIVE PSEUDO-RANDOM NUMBER?
    002054  740001  1669            CMA                     NO, SO TURN IT INTO ONE
                    1670                    
    002055  324106  1671            ADD     SQWFAC,I        ***
    002056  740100  1672            SMA                     * WAS THIS WARP FATAL?
    002057  602100  1673            JMP     FATALW          ***
                    1674                    
    002060  224105  1675            LAC     SQWTIM,I        WE SURVIVED
    002061  064070  1676            DAC     SQTRAN,I        SO RESTORE THE OLD TRANSFER VECTOR ENTRY
                    1677                    
    002062  103265  1678            JMS     RANDOM          GET A PSEUDO-RANDOM NUMBER
    002063  400556  1679            XCT     WVELO           MODIFY IT ACCORDING TO THE HANDICAP TABLE
    002064  064073  1680            DAC     SQXVEL,I        SET IT UP AS THE NEW X VELOCITY
                    1681                    
    002065  103265  1682            JMS     RANDOM          GET A PSEUDO-RANDOM NUMBER
    002066  400556  1683            XCT     WVELO           MODIFY IT ACCORDING TO THE HANDICAP TABLE
    002067  064074  1684            DAC     SQYVEL,I        SET IT UP AS THE NEW Y VELOCITY
                    1685                    
    002070  203274  1686            LAC     RND             GET BACK THE PSEUDO-RANDOM NUMBER
    002071  064077  1687            DAC     SQANGL,I        GET A NEW ANGLE
                    1688                    
    002072  742010  1689            RTL     
    002073  660504  1690            LRSS    4
    002074  064100  1691            DAC     SQROLL,I        AND A NEW ROLL
                    1692                    
    002075  200554  1693            LAC     DTIME           GET THE AMOUNT OF TIME UNTIL NEXT POSSIBLE WARP
    002076  064105  1694            DAC     SQWTIM,I        ENTER IT IN THE OBJECT DEFINITION TABLE
                    1695                    
    002077  601320  1696            JMP     NEXT            AND RETURN
WAR         08/13/80    20:30:38    PDP-9/GRAPHIC II VERSION OF SPACEWAR                                            PAGE  44

                                            SHIP   MANAGEMENT ROUTINES -- WARP

                    1698    *       
                    1699    *       
                    1700    *       SET UP FOR EXPLOSION
                    1701    *       
    002100  206050  1702    FATALW  LAC     (BLOWUP+300000+400000) GET THE ADDRESS OF THE EXPLOSION ROUTINE
    002101  064070  1703            DAC     SQTRAN,I        ENTER IT IN THE OBJECT DEFINITION TABLE
                    1704                    
    002102  777757  1705            LAW     -16.-1          GET THE AMOUNT OF TIME THAT AN EXPLOSION LASTS
    002103  064075  1706            DAC     SQTIME,I        AND PUT IT IN THE TIMER SLOT
                    1707                    
    002104  164102  1708            DZM     SQBULL,I        WIPE OUT ITS BULLETS
                    1709                    
    002105  443536  1710            ISZ     NSHIP           ***
    002106  601320  1711            JMP     NEXT            * DECREMENT COUNTER OF SURVIVING SHIPS
    002107  601320  1712            JMP     NEXT            ***
WAR         08/13/80    20:30:38    PDP-9/GRAPHIC II VERSION OF SPACEWAR                                            PAGE  45

                                            SHIP   MANAGEMENT ROUTINES -- INVISIBILITY

                    1714    *       
                    1715    *       
                    1716    *       CHECK FOR INVISIBILITY
                    1717    *       
    002110  464110  1718    VISIBL  ISZ     SQINVT,I        INCREMENT THE AMOUNT OF TIME SINCE WE LAST CHANGED STATE
    002111  740000  1719            NOP     
                    1720                    
    002112  203415  1721            LAC     BUTINS          GET THE PUSHBUTTONS
    002113  506051  1722            AND     (010000)        SEE IF A CHANGE OF STATE IS DESIRED
    002114  740201  1723            SZA!CMA 
                    1724                    
    002115  224110  1725            LAC     SQINVT,I        ***
    002116  741100  1726            SPA                     * SEE IF IT'S PERMITTED AGAIN YET
    002117  602124  1727            JMP     BEJUST          ***
                    1728                    
    002120  777741  1729            LAW     -30.-1          RESET THE INVISIBILITY TIMER TO ONE SECOND
    002121  064110  1730            DAC     SQINVT,I
                    1731                    
    002122  264107  1732            XOR     SQINVF,I        CHANGE THE STATE OF THE INVISIBILITY FLAG
    002123  064107  1733            DAC     SQINVF,I
WAR         08/13/80    20:30:38    PDP-9/GRAPHIC II VERSION OF SPACEWAR                                            PAGE  46

                                            SHIP   MANAGEMENT ROUTINES -- CONTROL RESTORATION

                    1735    *       
                    1736    *       
                    1737    *       GIVE UNFORTUNATE PLAYER WHO HAS LOST HIS THRUST A SECOND CHANCE
                    1738    *       
    002124  224111  1739    BEJUST  LAC     SQDAMS,I        GET SHIP'S DAMAGES
    002125  506000  1740            AND     (040000)        EXTRACT THRUSTING BIT
    002126  741200  1741            SNA                     SKIP IF STILL THERE
                    1742                    
    002127  464112  1743            ISZ     SQTTIM,I        INCREMENT TIMER
    002130  602134  1744            JMP     BEFAIR          IT HASN'T TIMED OUT YET
                    1745                    
    002131  224111  1746            LAC     SQDAMS,I        GET BACK DAMAGES
    002132  246000  1747            XOR     (040000)        RESTORE THRUSTING CAPABILITY
    002133  064111  1748            DAC     SQDAMS,I        PUT BACK DAMAGES
                    1749    *       
                    1750    *       
                    1751    *       GIVE UNFORTUNATE PLAYER WHO HAS LOST HIS BULLETS A SECOND CHANCE
                    1752    *       
    002134  224111  1753    BEFAIR  LAC     SQDAMS,I        GET SHIP'S DAMAGES
    002135  506052  1754            AND     (020000)        EXTRACT BULLET-FIRING BIT
    002136  741200  1755            SNA                     SKIP IF STILL THERE
                    1756                    
    002137  464113  1757            ISZ     SQBTIM,I        INCREMENT TIMER
    002140  602144  1758            JMP     BEKIND          IT HASN'T TIMED OUT YET
                    1759                    
    002141  224111  1760            LAC     SQDAMS,I        GET BACK DAMAGES
    002142  246052  1761            XOR     (020000)        RESTORE BULLET-FIRING CAPABILITY
    002143  064111  1762            DAC     SQDAMS,I        PUT BACK DAMAGES
WAR         08/13/80    20:30:38    PDP-9/GRAPHIC II VERSION OF SPACEWAR                                            PAGE  47

                                            SHIP   MANAGEMENT ROUTINES -- CONTROL RESTORATION

                    1764    *       
                    1765    *       
                    1766    *       GIVE UNFORTUNATE PLAYER WHO HAS LOST HIS LEFT TURN A SECOND CHANCE
                    1767    *       
    002144  224111  1768    BEKIND  LAC     SQDAMS,I        GET SHIP'S DAMAGES
    002145  506053  1769            AND     (200000)        EXTRACT LEFT TURNING BIT
    002146  741200  1770            SNA                     SKIP IF STILL THERE
                    1771                    
    002147  464114  1772            ISZ     SQLTIM,I        INCREMENT TIMER
    002150  602155  1773            JMP     BENICE          IT HASN'T TIMED OUT YET
                    1774                    
    002151  224111  1775            LAC     SQDAMS,I        GET BACK DAMAGES
    002152  506033  1776            AND     (-001000-1)     EXCLUDING INCIDENTAL DAMAGES
    002153  246054  1777            XOR     (201000)        RESTORE LEFT TURNING CAPABILITY; TURN OFF ANGULAR MOMENTUM
    002154  064111  1778            DAC     SQDAMS,I        PUT BACK DAMAGES
                    1779    *       
                    1780    *       
                    1781    *       GIVE UNFORTUNATE PLAYER WHO HAS LOST HIS RIGHT TURN A SECOND CHANCE
                    1782    *       
    002155  224111  1783    BENICE  LAC     SQDAMS,I        GET SHIP'S DAMAGES
    002156  506055  1784            AND     (100000)        EXTRACT RIGHT TURNING BIT
    002157  741200  1785            SNA                     SKIP IF STILL THERE
                    1786                    
    002160  464115  1787            ISZ     SQRTIM,I        INCREMENT TIMER
    002161  602166  1788            JMP     CALROL          IT HASN'T TIMED OUT YET
                    1789                    
    002162  224111  1790            LAC     SQDAMS,I        GET BACK DAMAGES
    002163  506033  1791            AND     (-001000-1)     EXCLUDING INCIDENTAL DAMAGES
    002164  246056  1792            XOR     (101000)        RESTORE LEFT TURNING CAPABILITY; TURN OFF ANGULAR MOMENTUM
    002165  064111  1793            DAC     SQDAMS,I        PUT BACK DAMAGES
WAR         08/13/80    20:30:38    PDP-9/GRAPHIC II VERSION OF SPACEWAR                                            PAGE  48

                                            SHIP   MANAGEMENT ROUTINES -- TURNING

                    1795    *       
                    1796    *       
                    1797    *       CALCULATE ROLL
                    1798    *       
    002166  200542  1799    CALROL  LAC     ROLL            STICK USER PARAMETER IN PROGRAM
    002167  042176  1800            DAC     ROLFAC
                    1801                    
    002170  203415  1802            LAC     BUTINS          GET THE PUSHBUTTONS
    002171  740010  1803            RAL                     PUT THE LEFT ROLL BIT IN AC0 AND THE RIGHT IN AC1
    002172  740001  1804            CMA                     CHANGE THEIR SIGNS
    002173  664000  1805            GSM                     GET A POSITIVE NUMBER
    002174  506057  1806            AND     (600000)        MASK OUT LOW ORDER BITS
                    1807                    
    002175  657122  1808            MULS                    AND MULTIPLY BY THE ROLL CONSTANT
    002176  000000  1809    ROLFAC  0       
                    1810                    
    002177  660602  1811            LLSS    2               DOUBLE THE RESULT
                    1812                    
    002200  652000  1813            LMQ                     ***
    002201  324100  1814            ADD     SQROLL,I        * INCREMENT THE ROLL, ASSUMING ANGULAR MOMENTUM IS ON
    002202  064100  1815            DAC     SQROLL,I        ***
                    1816                    
    002203  203413  1817            LAC     SWITCH          GET BACK THE SWITCHES
    002204  506060  1818            AND     (001000)        SEE IF ANGULAR MOMENTUM IS ON
    002205  751200  1819            SNA!CLA                 IF SO, NOTHING MORE TO DO
                    1820                    
    002206  224111  1821            LAC     SQDAMS,I        GET DAMAGES INCURRED
    002207  506060  1822            AND     (001000)        ***
    002210  741200  1823            SNA                     * SEE IF ANGULAR MOMENTUM IS ON -- IF SO, NOTHING MORE TO DO
    002211  602215  1824            JMP     CALANG          ***
                    1825                    
    002212  641002  1826            LACQ                    ***
    002213  660705  1827            ALSS    5               * ANGULAR MOMENTUM IS OFF -- SO REDUCE THE ROLL
    002214  064100  1828            DAC     SQROLL,I        ***
                    1829    *       
                    1830    *       
                    1831    *       CALCULATE ANGLE
                    1832    *       
    002215  224077  1833    CALANG  LAC     SQANGL,I        ***
    002216  324100  1834            ADD     SQROLL,I        * ADD THE ROLL TO THE OLD ANGLE TO CALCULATE THE NEW ANGLE
    002217  064077  1835            DAC     SQANGL,I        ***
                    1836                    
    002220  103161  1837            JMS     SINCOS          CALCULATE THE SINE AND COSINE OF THE ANGLE
                    1838                    
    002221  103002  1839            JMS     GRAV            AND GET THE EFFECT OF GRAVITY ON THIS SHIP
WAR         08/13/80    20:30:38    PDP-9/GRAPHIC II VERSION OF SPACEWAR                                            PAGE  49

                                            SHIP   MANAGEMENT ROUTINES -- THRUSTING

                    1841    *       
                    1842    *       
                    1843    *       CHECK FOR THRUSTING
                    1844    *       
    002222  203415  1845            LAC     BUTINS          GET THE PUSHBUTTONS
    002223  506000  1846            AND     (040000)        SEE IF THRUSTING
    002224  740200  1847            SZA     
                    1848                    
    002225  224101  1849            LAC     SQFUEL,I        ***
    002226  740100  1850            SMA                     * CHECK FUEL SUPPLY
    002227  602244  1851            JMP     DRAWP           ***
                    1852                    
    002230  203264  1853            LAC     COSINE          GET THE COSINE OF THE ANGLE OF THE SHIP
    002231  400541  1854            XCT     THRUS           MODIFY IT ACCORDING TO THE HANDICAP TABLE
    002232  303117  1855            ADD     XGRAV           ADD THE EFFECT OF GRAVITY
    002233  043117  1856            DAC     XGRAV           TO GET A COMPOSITE EFFECT ON THE X VELOCITY
                    1857                    
    002234  203263  1858            LAC     SINE            GET THE SINE OF THE ANGLE OF THE SHIP
    002235  400541  1859            XCT     THRUS           MODIFY IT ACCORDING TO THE HANDICAP TABLE
    002236  303120  1860            ADD     YGRAV           ADD THE EFFECT OF GRAVITY
    002237  043120  1861            DAC     YGRAV           TO GET A COMPOSITE EFFECT ON THE Y VELOCITY
                    1862                    
    002240  206061  1863            LAC     (NOP)           PUT A 'NOP' INSTRUCTION IN
    002241  042246  1864            DAC     DRAWJ           'DRAWJ' TO PRINT A JET ON THE SHIP
                    1865                    
    002242  464101  1866            ISZ     SQFUEL,I        DECREMENT THE AMOUNT OF FUEL LEFT
    002243  740000  1867            NOP     
WAR         08/13/80    20:30:38    PDP-9/GRAPHIC II VERSION OF SPACEWAR                                            PAGE  50

                                            SHIP   MANAGEMENT ROUTINES -- THRUSTING

    002244  102363  1869    DRAWP   JMS     UPDATE          REDUCE VELOCITY BY GRAVITY AND FRICTION FACTORS
                    1870                    
                    1871                    
    002245  102414  1872            JMS     DRAWS           GO DRAW THE PICTURE OF THE SHIP
                    1873                    
                    1874                    
    002246  740040  1875    DRAWJ   HLT                     WE PUT A 'NOP' INSTRUCTION HERE IF WE ARE THRUSTING
                    1876                                    OTHERWISE WE PUT A 'JMP FIRE' HERE
                    1877                    
    002247  206035  1878            LAC     (040006)        PUT A 'SET INTENSITY 2' COMMAND IN THE SCOPE BUFFER
    002250  060010  1879            DAC     X0,I
                    1880                    
    002251  103265  1881            JMS     RANDOM          GET A PSEUDO-RANDOM NUMBER
    002252  744002  1882            STL                     ***
    002253  640516  1883            LRS     14.             * CALCULATE THE LENGTH OF THE JET
    002254  043530  1884            DAC     TEMP0           ***
                    1885                    
    002255  203264  1886            LAC     COSINE          GET THE COSINE OF THE SHIP'S ANGLE
    002256  740001  1887            CMA                     ***
    002257  660506  1888            LRSS    6               * GRANULARIZE THE COSINE FOR USE IN DRAWING THE JET
    002260  042654  1889            DAC     MCOS            ***
                    1890                    
    002261  203263  1891            LAC     SINE            GET THE SINE OF THE SHIP'S ANGLE
    002262  740001  1892            CMA                     ***
    002263  660506  1893            LRSS    6               * GRANULARIZE THE SINE FOR USE IN DRAWING THE JET
    002264  042653  1894            DAC     MSIN            ***
                    1895                    
    002265  203353  1896    DRAWJ1  LAC     XLOC            ***
    002266  302654  1897            ADD     MCOS            * UPDATE X LOCATION
    002267  043353  1898            DAC     XLOC            ***
                    1899                    
    002270  203354  1900            LAC     YLOC            ***
    002271  302653  1901            ADD     MSIN            * UPDATE Y LOCATION
    002272  043354  1902            DAC     YLOC            ***
                    1903                    
    002273  103340  1904            JMS     SCOPE           DRAW A POINT OF THE JET ON THE SCOPE
                    1905                    
    002274  443530  1906            ISZ     TEMP0           HAVE WE REACHED THE TAIL END?
    002275  602265  1907            JMP     DRAWJ1          NO, LOOP BACK TO DRAW ANOTHER POINT
WAR         08/13/80    20:30:38    PDP-9/GRAPHIC II VERSION OF SPACEWAR                                            PAGE  51

                                            SHIP   MANAGEMENT ROUTINES -- FIRING BULLETS

                    1909    *       
                    1910    *       
                    1911    *       CHECK FOR BULLET-FIRING
                    1912    *       
    002276  203415  1913    FIRE    LAC     BUTINS          GET THE PUSHBUTTONS
    002277  506052  1914            AND     (020000)        SEE IF FIRING BULLETS
    002300  740201  1915            SZA!CMA 
                    1916                    
    002301  224075  1917            LAC     SQTIME,I        SEE IF SHIP IS ALLOWED TO FIRE ANOTHER BULLET YET
    002302  740101  1918            SMA!CMA 
                    1919                    
    002303  224102  1920            LAC     SQBULL,I        ***
    002304  740100  1921            SMA                     * SEE IF IN FACT SHIP HAS ANY BULLETS LEFT TO FIRE
    002305  601320  1922            JMP     NEXT            ***
                    1923    *       
                    1924    *       
                    1925    *       SEARCH FOR A VACANT SLOT IN THE TRANSFER VECTOR
                    1926    *       
    002306  206062  1927            LAC     (LAC TRNEND)    GET AN INSTRUCTION WHICH WILL PICK UP THE LAST TRANSFER VECTOR ENTRY
                    1928                    
    002307  042310  1929    FIRE1   DAC     FIRE2           STICK IT IN THE PROGRAM
                    1930                    
    002310  740040  1931    FIRE2   HLT     
                    1932                    
    002311  751201  1933            SNA!CLC                 DID WE FIND A HOLE?
    002312  602317  1934            JMP     FIRE3           YES
                    1935                    
    002313  342310  1936            TAD     FIRE2           BACK UP ONE ENTRY IN THE TRANSFER VECTOR
                    1937                    
    002314  546063  1938            SAD     (LAC SXTRAN+NUMSHP-1) IS THE TRANSFER VECTOR FULL?
    002315  601320  1939            JMP     NEXT            YES, SO NO MORE BULLETS
                    1940                    
    002316  602307  1941            JMP     FIRE1           NO, CONTINUE SEARCH FOR FREE ENTRY IN TRANSFER VECTOR
WAR         08/13/80    20:30:38    PDP-9/GRAPHIC II VERSION OF SPACEWAR                                            PAGE  52

                                            SHIP   MANAGEMENT ROUTINES -- FIRING BULLETS

                    1943    *       
                    1944    *       
                    1945    *       SET UP THE VARIOUS PARAMETERS WHICH DEFINE THIS OBJECT ON THE SCREEN
                    1946    *       
    002317  206064  1947    FIRE3   LAC     (BULLET+020000) GET A POINTER TO THE BULLET MANAGEMENT SUBROUTINE
    002320  062310  1948            DAC     FIRE2,I         AND PUT IT IN THE TRANSFER VECTOR
                    1949                    
    002321  202310  1950            LAC     FIRE2
    002322  306065  1951            ADD     (SXXLOC-SXTRAN) SET UP A POINTER TO THE X LOCATION
    002323  043530  1952            DAC     TEMP0
                    1953                    
    002324  306065  1954            ADD     (SXYLOC-SXXLOC) SET UP A POINTER TO THE Y LOCATION
    002325  043531  1955            DAC     TEMP1
                    1956                    
    002326  306065  1957            ADD     (SXXVEL-SXYLOC) SET UP A POINTER TO THE X VELOCITY
    002327  043532  1958            DAC     TEMP2
                    1959                    
    002330  306065  1960            ADD     (SXYVEL-SXXVEL) SET UP A POINTER TO THE Y VELOCITY
    002331  043533  1961            DAC     TEMP3
                    1962                    
    002332  306065  1963            ADD     (SXTIME-SXYVEL) SET UP A POINTER TO THE TIMER
    002333  042310  1964            DAC     FIRE2
                    1965                    
    002334  203264  1966            LAC     COSINE          ***
    002335  660502  1967            LRSS    2               * GENERATE THE X LOCATION
    002336  324071  1968            ADD     SQXLOC,I        ***
    002337  063530  1969            DAC     TEMP0,I
                    1970                    
    002340  203263  1971            LAC     SINE            ***
    002341  660502  1972            LRSS    2               * GENERATE THE Y LOCATION
    002342  324072  1973            ADD     SQYLOC,I        ***
    002343  063531  1974            DAC     TEMP1,I
                    1975                    
    002344  203264  1976            LAC     COSINE          ***
    002345  400545  1977            XCT     BLVEL           * GENERATE THE X VELOCITY
    002346  324073  1978            ADD     SQXVEL,I        ***
    002347  063532  1979            DAC     TEMP2,I
                    1980                    
    002350  203263  1981            LAC     SINE            ***
    002351  400545  1982            XCT     BLVEL           * GENERATE THE Y VELOCITY
    002352  324074  1983            ADD     SQYVEL,I        ***
    002353  063533  1984            DAC     TEMP3,I
                    1985                    
    002354  200546  1986            LAC     BLTIM           GET THE AMOUNT OF TIME THAT A BULLET LASTS
    002355  062310  1987            DAC     FIRE2,I         INITIALIZE THE BULLET'S TIMER
                    1988                    
    002356  200547  1989            LAC     BLINT           GET THE INTERVAL THAT BULLETS CAN BE SHOT
    002357  064075  1990            DAC     SQTIME,I        INITIALIZE THE SHIP'S TIMER
                    1991                    
    002360  464102  1992            ISZ     SQBULL,I        ***
    002361  601320  1993            JMP     NEXT            * DECREMENT THE BULLET SUPPLY AND RETURN
    002362  601320  1994            JMP     NEXT            ***
WAR         08/13/80    20:30:38    PDP-9/GRAPHIC II VERSION OF SPACEWAR                                            PAGE  53

                                            SHIP   MANAGEMENT ROUTINES

                    1996    *       
                    1997    *       
                    1998    *       REDUCE VELOCITY BY GRAVITY AND FRICTION FACTORS
                    1999    *       
    002363  740040  2000    UPDATE  XX      
                    2001                    
    002364  200560  2002            LAC     FRICT           ***
    002365  042373  2003            DAC     FRIC1           * STICK USER PARAMETER IN PROGRAM
    002366  042405  2004            DAC     FRIC2           ***
                    2005                    
                    2006    *       
                    2007    *       
                    2008    *       UPDATE X PARAMETERS: X VELOCITY AND X LOCATION
                    2009    *       
    002367  203117  2010            LAC     XGRAV           ***
    002370  324073  2011            ADD     SQXVEL,I        * REDUCE X VELOCITY BY GRAVITY
    002371  744000  2012            CLL                     ***
                    2013                    
    002372  657122  2014            MULS                    REDUCE X VELOCITY BY FRICTION FACTOR
    002373  000000  2015    FRIC1   0       
                    2016                    
    002374  660601  2017            LLSS    1               UPDATE REDUCED X VELOCITY
    002375  064073  2018            DAC     SQXVEL,I
                    2019                    
    002376  660503  2020            LRSS    3               ***
    002377  324071  2021            ADD     SQXLOC,I        * UPDATE X LOCATION ACCORDING TO X VELOCITY
    002400  064071  2022            DAC     SQXLOC,I        ***
                    2023                    
                    2024    *       
                    2025    *       
                    2026    *       UPDATE Y PARAMETERS: Y VELOCITY AND Y LOCATION
                    2027    *       
    002401  203120  2028            LAC     YGRAV           ***
    002402  324074  2029            ADD     SQYVEL,I        * REDUCE Y VELOCITY BY GRAVITY
    002403  744000  2030            CLL                     ***
                    2031                    
    002404  657122  2032            MULS                    REDUCE Y VELOCITY BY FRICTION FACTOR
    002405  000000  2033    FRIC2   0       
                    2034                    
    002406  660601  2035            LLSS    1               UPDATE REDUCED Y VELOCITY
    002407  064074  2036            DAC     SQYVEL,I
                    2037                    
    002410  660503  2038            LRSS    3               ***
    002411  324072  2039            ADD     SQYLOC,I        * UPDATE Y LOCATION ACCORDING TO Y VELOCITY
    002412  064072  2040            DAC     SQYLOC,I        ***
                    2041                    
    002413  622363  2042            JMP     UPDATE,I        EXIT
WAR         08/13/80    20:30:38    PDP-9/GRAPHIC II VERSION OF SPACEWAR                                            PAGE  54

                                            SHIP   MANAGEMENT ROUTINES -- DRAWING THE PICTURE

    002414  740040  2044    DRAWS   XX      
                    2045                    
    002415  203263  2046            LAC     SINE            ***
    002416  660507  2047            LRSS    7               * GRANULARIZE THE SINE FOR USE IN DRAWING THE PICTURE
    002417  042651  2048            DAC     SIN             ***
                    2049                    
    002420  740001  2050            CMA                     COMPLEMENT THE RESULT FOR USE IN DRAWING THE PICTURE
    002421  042653  2051            DAC     MSIN
                    2052                    
    002422  203264  2053            LAC     COSINE          ***
    002423  660507  2054            LRSS    7               * GRANULARIZE THE COSINE FOR USE IN DRAWING THE PICTURE
    002424  042652  2055            DAC     COS             ***
                    2056                    
    002425  740001  2057            CMA                     COMPLEMENT THE RESULT FOR USE IN DRAWING THE PICTURE
    002426  042654  2058            DAC     MCOS
                    2059                    
    002427  302653  2060            ADD     MSIN            CALCULATE THE GRANULARIZED -SINE-COSINE FOR USE DRAWING THE PICTURE
    002430  042655  2061            DAC     MSNMCS
                    2062                    
    002431  202651  2063            LAC     SIN             ***
    002432  302654  2064            ADD     MCOS            * CALCULATE THE GRANULARIZED SINE-COSINE FOR USE IN DRAWING THE PICTURE
    002433  042656  2065            DAC     SINMCS          ***
                    2066                    
    002434  740001  2067            CMA                     FINALLY, CALCULATE THE GRANULARIZED COSINE-SINE
    002435  042657  2068            DAC     CSMSIN          FOR USE IN DRAWING THE PICTURE OF THE SHIP
                    2069                    
    002436  203264  2070            LAC     COSINE
    002437  660503  2071            LRSS    3               ***
    002440  324071  2072            ADD     SQXLOC,I        * CALCULATE THE X-COORDINATE OF THE FRONT OF THE SHIP
    002441  042647  2073            DAC     XFRONT          ***
                    2074                    
    002442  203263  2075            LAC     SINE
    002443  660503  2076            LRSS    3               ***
    002444  324072  2077            ADD     SQYLOC,I        * CALCULATE THE Y-COORDINATE OF THE FRONT OF THE SHIP
    002445  042650  2078            DAC     YFRONT          ***
                    2079                    
    002446  206066  2080            LAC     (040005)        PUT A 'SET INTENSITY 1' COMMAND IN THE SCOPE BUFFER
    002447  060010  2081            DAC     X0,I
WAR         08/13/80    20:30:38    PDP-9/GRAPHIC II VERSION OF SPACEWAR                                            PAGE  55

                                            SHIP   MANAGEMENT ROUTINES -- DRAWING THE PICTURE

    002450  206067  2083            LAC     (JMP DRAWLH)    INITIALIZE POINTER TO FIRST COMMAND TABLE
    002451  042660  2084            DAC     DRAWT
                    2085                    
    002452  777777  2086            LAW     -1              INITIALIZE THE '6' COMMAND SWITCH: 'SAVE CURRENT POINTER'
    002453  043530  2087            DAC     TEMP0
                    2088                    
    002454  224111  2089            LAC     SQDAMS,I        GET SHIP'S DAMAGES
    002455  740005  2090            CMA!OAS                 AND ITS DISABLEMENTS
                    2091                    
    002456  602462  2092            JMP     DRAW2
                    2093                    
    002457  224111  2094    DRAW1   LAC     SQDAMS,I        GET SHIP'S DAMAGES
    002460  740005  2095            CMA!OAS                 AND ITS DISABLEMENTS
                    2096                    
    002461  740010  2097            RAL     
                    2098                    
    002462  742010  2099    DRAW2   RTL     
                    2100                    
    002463  224104  2101            LAC     SQPICN,I        SHOW THAT FIN IS MISSING
    002464  740400  2102            SNL     
    002465  224103  2103            LAC     SQPICP,I        SHOW THAT FIN IS STILL THERE
                    2104                    
    002466  040015  2105            DAC     X5              SET UP A POINTER TO THE PICTURE
                    2106                    
    002467  202647  2107            LAC     XFRONT          GET THE X LOCATION OF THE FRONT OF THE SHIP
    002470  043353  2108            DAC     XLOC
                    2109                    
    002471  202650  2110            LAC     YFRONT          GET THE Y LOCATION OF THE FRONT OF THE SHIP
    002472  043354  2111            DAC     YLOC
                    2112                    
    002473  220015  2113    DRAW3   LAC     X5,I            GET THE NEXT WORD OF COMMANDS
    002474  043533  2114            DAC     TEMP3
                    2115                    
    002475  777771  2116            LAW     -6-1            INITIALIZE THE SIX-PER-WORD OCTIT COUNTER
    002476  043532  2117            DAC     TEMP2
                    2118                    
    002477  443532  2119    DRAWN   ISZ     TEMP2           CHECK IF THIS WORD IS DONE
    002500  741000  2120            SKP     
    002501  602473  2121            JMP     DRAW3           YES
                    2122                    
    002502  203533  2123            LAC     TEMP3           GET BACK RESULT OF LAST SHIFT
    002503  744000  2124            CLL     
    002504  653603  2125            LMQ!EAECLA!LLS 3        GET THE NEXT COMMAND
    002505  302660  2126            ADD     DRAWT           RELATIVE TO THE BEGINNING OF THE COMMAND TABLE
    002506  042511  2127            DAC     DRAWX
                    2128                    
    002507  641002  2129            LACQ                    SAVE THE REMAINDER OF THE COMMAND WORD
    002510  043533  2130            DAC     TEMP3
WAR         08/13/80    20:30:38    PDP-9/GRAPHIC II VERSION OF SPACEWAR                                            PAGE  56

                                            SHIP   MANAGEMENT ROUTINES -- DRAWING THE PICTURE

                    2132    *       
                    2133    *       
                    2134    *       GO EXECUTE THE COMMAND
                    2135    *       
    002511  740040  2136    DRAWX   HLT                     GO EXECUTE THE COMMAND
                    2137    *       
                    2138    *       
                    2139    *       COMMANDS TO DRAW THE LEFT HALF OF THE SHIP
                    2140    *       
    002512  602534  2141    DRAWLH  JMP     DRAWU           0 = DRAW A POINT STRAIGHT UP
                    2142                    
    002513  602546  2143            JMP     DRAWD           1 = DRAW A POINT STRAIGHT DOWN
                    2144                    
    002514  602560  2145            JMP     DRAWL           2 = DRAW A POINT TO THE LEFT
                    2146                    
    002515  602572  2147            JMP     DRAWDL          3 = DRAW A POINT DIAGONALLY DOWN TO THE LEFT
                    2148                    
    002516  602604  2149            JMP     DRAWR           4 = DRAW A POINT TO THE RIGHT
                    2150                    
    002517  602616  2151            JMP     DRAWDR          5 = DRAW A POINT DIAGONALLY DOWN TO THE RIGHT
                    2152                    
    002520  602630  2153            JMP     DRAWSP          6 = SAVE A POINTER TO THIS LOCATION OR RESTORE OLD LOCATION
                    2154                    
    002521  206070  2155            LAC     (JMP DRAWRH)    7 = DONE
    002522  042660  2156            DAC     DRAWT
                    2157                    
    002523  602457  2158            JMP     DRAW1
                    2159    *       
                    2160    *       
                    2161    *       COMMANDS TO DRAW THE RIGHT HALF OF THE SHIP
                    2162    *       
    002524  602534  2163    DRAWRH  JMP     DRAWU           0 = DRAW A POINT STRAIGHT UP
                    2164                    
    002525  602546  2165            JMP     DRAWD           1 = DRAW A POINT STRAIGHT DOWN
                    2166                    
    002526  602604  2167            JMP     DRAWR           2 = DRAW A POINT TO THE RIGHT
                    2168                    
    002527  602616  2169            JMP     DRAWDR          3 = DRAW A POINT DIAGONALLY DOWN TO THE RIGHT
                    2170                    
    002530  602560  2171            JMP     DRAWL           4 = DRAW A POINT TO THE LEFT
                    2172                    
    002531  602572  2173            JMP     DRAWDL          5 = DRAW A POINT DIAGONALLY DOWN TO THE LEFT
                    2174                    
    002532  602630  2175            JMP     DRAWSP          6 = SAVE A POINTER TO THIS LOCATION OR RESTORE OLD LOCATION
                    2176                    
    002533  622414  2177            JMP     DRAWS,I         7 = DONE
WAR         08/13/80    20:30:38    PDP-9/GRAPHIC II VERSION OF SPACEWAR                                            PAGE  57

                                            SHIP   MANAGEMENT ROUTINES -- DRAWING THE PICTURE

                    2179    *       
                    2180    *       
                    2181    *       LEFT 0 = RIGHT 0 = DRAW A POINT STRAIGHT UP
                    2182    *       
    002534  203353  2183    DRAWU   LAC     XLOC            ***
    002535  302652  2184            ADD     COS             * INCREMENT THE X LOCATION BY THE COSINE
    002536  043353  2185            DAC     XLOC            ***
                    2186                    
    002537  203354  2187            LAC     YLOC            ***
    002540  302651  2188            ADD     SIN             * INCREMENT THE Y LOCATION BY THE SINE
    002541  043354  2189            DAC     YLOC            ***
                    2190                    
    002542  224107  2191            LAC     SQINVF,I        ***
    002543  741200  2192            SNA                     * CHECK FOR INVISIBILITY
    002544  103340  2193            JMS     SCOPE           ***
                    2194                    
    002545  602477  2195            JMP     DRAWN           GO GET NEXT COMMAND
                    2196    *       
                    2197    *       
                    2198    *       LEFT 1 = RIGHT 1 = DRAW A POINT STRAIGHT DOWN
                    2199    *       
    002546  203353  2200    DRAWD   LAC     XLOC            ***
    002547  302654  2201            ADD     MCOS            * DECREMENT THE X LOCATION BY THE COSINE
    002550  043353  2202            DAC     XLOC            ***
                    2203                    
    002551  203354  2204            LAC     YLOC            ***
    002552  302653  2205            ADD     MSIN            * DECREMENT THE Y LOCATION BY THE SINE
    002553  043354  2206            DAC     YLOC            ***
                    2207                    
    002554  224107  2208            LAC     SQINVF,I        ***
    002555  741200  2209            SNA                     * CHECK FOR INVISIBILITY
    002556  103340  2210            JMS     SCOPE           ***
                    2211                    
    002557  602477  2212            JMP     DRAWN           GO GET NEXT COMMAND
WAR         08/13/80    20:30:38    PDP-9/GRAPHIC II VERSION OF SPACEWAR                                            PAGE  58

                                            SHIP   MANAGEMENT ROUTINES -- DRAWING THE PICTURE

                    2214    *       
                    2215    *       
                    2216    *       LEFT 2 = RIGHT 4 = DRAW A POINT TO THE LEFT
                    2217    *       
    002560  203353  2218    DRAWL   LAC     XLOC            ***
    002561  302653  2219            ADD     MSIN            * DECREMENT THE X LOCATION BY THE SINE
    002562  043353  2220            DAC     XLOC            ***
                    2221                    
    002563  203354  2222            LAC     YLOC            ***
    002564  302652  2223            ADD     COS             * INCREMENT THE Y LOCATION BY THE COSINE
    002565  043354  2224            DAC     YLOC            ***
                    2225                    
    002566  224107  2226            LAC     SQINVF,I        ***
    002567  741200  2227            SNA                     * CHECK FOR INVISIBILITY
    002570  103340  2228            JMS     SCOPE           ***
                    2229                    
    002571  602477  2230            JMP     DRAWN           GO GET NEXT COMMAND
                    2231    *       
                    2232    *       
                    2233    *       LEFT 3 = RIGHT 5 = DRAW A POINT DIAGONALLY DOWN TO THE LEFT
                    2234    *       
    002572  203353  2235    DRAWDL  LAC     XLOC            ***
    002573  302655  2236            ADD     MSNMCS          * DECREMENT THE X LOCATION BY THE SINE
    002574  043353  2237            DAC     XLOC            ***
                    2238                    
    002575  203354  2239            LAC     YLOC            ***
    002576  302657  2240            ADD     CSMSIN          * INCREMENT THE Y LOCATION BY THE COSINE; DECREMENT BY THE SINE
    002577  043354  2241            DAC     YLOC            ***
                    2242                    
    002600  224107  2243            LAC     SQINVF,I        ***
    002601  741200  2244            SNA                     * CHECK FOR INVISIBILITY
    002602  103340  2245            JMS     SCOPE           ***
                    2246                    
    002603  602477  2247            JMP     DRAWN           GO GET NEXT COMMAND
WAR         08/13/80    20:30:38    PDP-9/GRAPHIC II VERSION OF SPACEWAR                                            PAGE  59

                                            SHIP   MANAGEMENT ROUTINES -- DRAWING THE PICTURE

                    2249    *       
                    2250    *       
                    2251    *       LEFT 4 = RIGHT 2 = DRAW A POINT TO THE RIGHT
                    2252    *       
    002604  203353  2253    DRAWR   LAC     XLOC            ***
    002605  302651  2254            ADD     SIN             * INCREMENT THE X LOCATION BY THE SINE
    002606  043353  2255            DAC     XLOC            ***
                    2256                    
    002607  203354  2257            LAC     YLOC            ***
    002610  302654  2258            ADD     MCOS            * DECREMENT THE Y LOCATION BY THE COSINE
    002611  043354  2259            DAC     YLOC            ***
                    2260                    
    002612  224107  2261            LAC     SQINVF,I        ***
    002613  741200  2262            SNA                     * CHECK FOR INVISIBILITY
    002614  103340  2263            JMS     SCOPE           ***
                    2264                    
    002615  602477  2265            JMP     DRAWN           GO GET NEXT COMMAND
                    2266    *       
                    2267    *       
                    2268    *       LEFT 5 = RIGHT 3 = DRAW A POINT DIAGONALLY DOWN TO THE RIGHT
                    2269    *       
    002616  203353  2270    DRAWDR  LAC     XLOC            ***
    002617  302656  2271            ADD     SINMCS          * INCREMENT THE X LOCATION BY THE SINE; DECREMENT BY THE COSINE
    002620  043353  2272            DAC     XLOC            ***
                    2273                    
    002621  203354  2274            LAC     YLOC            ***
    002622  302655  2275            ADD     MSNMCS          * DECREMENT THE Y LOCATION BY THE SINE AND COSINE
    002623  043354  2276            DAC     YLOC            ***
                    2277                    
    002624  224107  2278            LAC     SQINVF,I        ***
    002625  741200  2279            SNA                     * CHECK FOR INVISIBILITY
    002626  103340  2280            JMS     SCOPE           ***
                    2281                    
    002627  602477  2282            JMP     DRAWN           GO GET NEXT COMMAND
WAR         08/13/80    20:30:38    PDP-9/GRAPHIC II VERSION OF SPACEWAR                                            PAGE  60

                                            SHIP   MANAGEMENT ROUTINES -- DRAWING THE PICTURE

                    2284    *       
                    2285    *       
                    2286    *       LEFT 6 = RIGHT 6 = SAVE A POINTER TO THIS LOCATION
                    2287    *       
    002630  443530  2288    DRAWSP  ISZ     TEMP0           SKIP IF SAVING
    002631  602637  2289            JMP     DRAWRP          JUMP IF RESTORING
                    2290                    
    002632  203353  2291            LAC     XLOC            SAVE CURRENT X LOCATION
    002633  043530  2292            DAC     TEMP0
                    2293                    
    002634  203354  2294            LAC     YLOC            SAVE CURRENT Y LOCATION
    002635  043531  2295            DAC     TEMP1
                    2296                    
    002636  602477  2297            JMP     DRAWN           AND GO GET NEXT COMMAND
                    2298    *       
                    2299    *       
                    2300    *       LEFT 6 = RIGHT 6 = RESTORE OLD LOCATION
                    2301    *       
    002637  777776  2302    DRAWRP  LAW     -1-1            READJUST INCREMENTED X LOCATION
    002640  303530  2303            ADD     TEMP0
    002641  043353  2304            DAC     XLOC            SET UP FOR SCOPE DRAWING SUBROUTINE
                    2305                    
    002642  203531  2306            LAC     TEMP1           GET BACK THE Y LOCATION
    002643  043354  2307            DAC     YLOC            SET UP FOR SCOPE DRAWING SUBROUTINE
                    2308                    
    002644  777777  2309            LAW     -1              SET SWITCH TO INTERPRET '6' COMMAND
    002645  043530  2310            DAC     TEMP0           AS 'SAVE CURRENT POINTER' (NOT 'RESTORE CURRENT POINTER')
                    2311                    
    002646  602477  2312            JMP     DRAWN           GO GET NEXT COMMAND
WAR         08/13/80    20:30:38    PDP-9/GRAPHIC II VERSION OF SPACEWAR                                            PAGE  61

                                            SHIP   MANAGEMENT ROUTINES -- DRAWING THE PICTURE

                    2314    *       
                    2315    *       
                    2316    *       CONSTANTS USED IN DRAWING THE PICTURE
                    2317    *       
        002647      2318    XFRONT  .BLOCK  1               X LOCATION OF THE FRONT OF THE SHIP (WHENCE BULLETS EMERGE)
        002650      2319    YFRONT  .BLOCK  1               Y LOCATION OF THE FRONT OF THE SHIP (WHENCE BULLETS EMERGE)
                    2320                    
        002651      2321    SIN     .BLOCK  1
        002652      2322    COS     .BLOCK  1
                    2323                    
        002653      2324    MSIN    .BLOCK  1
        002654      2325    MCOS    .BLOCK  1
                    2326                    
        002655      2327    MSNMCS  .BLOCK  1
                    2328                    
        002656      2329    SINMCS  .BLOCK  1
        002657      2330    CSMSIN  .BLOCK  1
                    2331                    
    002660  602660  2332    DRAWT   JMP     DRAWT
WAR         08/13/80    20:30:38    PDP-9/GRAPHIC II VERSION OF SPACEWAR                                            PAGE  62

                                            SHIP   MANAGEMENT ROUTINES -- DRAWING THE PICTURE -- SHIPS

                    2334    *       
                    2335    *       
                    2336    *       PUSHBUTTON 0
                    2337    *       
    002661  762700  2338    SBANK   LAW     S1PIC-1         POINT TO THE PICTURE OF THE LONG, SLIM SHIP
    002662  762710  2339            LAW     S1PICD-1
                    2340    *       
                    2341    *       
                    2342    *       PUSHBUTTON 1
                    2343    *       
    002663  762716  2344            LAW     S2PIC-1         POINT TO THE PICTURE OF THE SHORT, FAT SHIP
    002664  762726  2345            LAW     S2PICD-1
                    2346    *       
                    2347    *       
                    2348    *       PUSHBUTTON 2
                    2349    *       
    002665  762733  2350            LAW     S3PIC-1         POINT TO THE PICTURE OF THE U.S.S. ENTERPRISE
    002666  762745  2351            LAW     S3PICD-1
                    2352    *       
                    2353    *       
                    2354    *       PUSHBUTTON 3
                    2355    *       
    002667  762754  2356            LAW     S4PIC-1         POINT TO THE PICTURE OF THE DISCOVERY
    002670  762770  2357            LAW     S4PICD-1
                    2358    *       
                    2359    *       
                    2360    *       PUSHBUTTON 4
                    2361    *       
    002671  762700  2362            LAW     S1PIC-1         POINT TO THE PICTURE OF THE LONG, SLIM SHIP
    002672  762710  2363            LAW     S1PICD-1
                    2364    *       
                    2365    *       
                    2366    *       PUSHBUTTON 5
                    2367    *       
    002673  762716  2368            LAW     S2PIC-1         POINT TO THE PICTURE OF THE SHORT, FAT SHIP
    002674  762726  2369            LAW     S2PICD-1
                    2370    *       
                    2371    *       
                    2372    *       PUSHBUTTON 6
                    2373    *       
    002675  762733  2374            LAW     S3PIC-1         POINT TO THE PICTURE OF THE U.S.S. ENTERPRISE
    002676  762745  2375            LAW     S3PICD-1
                    2376    *       
                    2377    *       
                    2378    *       PUSHBUTTON 7
                    2379    *       
    002677  762754  2380            LAW     S4PIC-1         POINT TO THE PICTURE OF THE DISCOVERY
    002700  762770  2381            LAW     S4PICD-1
WAR         08/13/80    20:30:38    PDP-9/GRAPHIC II VERSION OF SPACEWAR                                            PAGE  63

                                            SHIP   MANAGEMENT ROUTINES -- DRAWING THE PICTURE -- SHIPS -- LONG, SLIM SHIP

                    2383    *       
                    2384    *       
                    2385    *       SHIP 1:
                    2386    *       
                    2387    *       LONG, SLIM SHIP
                    2388    *       
    002701  111131  2389    S1PIC   111131  
                    2390                    
    002702  111111  2391            111111  
                    2392                    
    002703  111111  2393            111111  
                    2394                    
    002704  111633  2395            111633  
                    2396                    
    002705  311111  2397            311111  
                    2398                    
    002706  144611  2399            144611  
                    2400                    
    002707  111111  2401            111111  
                    2402                    
    002710  147777  2403            147777  
                    2404    *       
                    2405    *       
                    2406    *       DAMAGED VERSION
                    2407    *       
    002711  111131  2408    S1PICD  111131  
                    2409                    
    002712  111111  2410            111111  
                    2411                    
    002713  111111  2412            111111  
                    2413                    
    002714  111111  2414            111111  
                    2415                    
    002715  111111  2416            111111  
                    2417                    
    002716  477777  2418            477777  
WAR         08/13/80    20:30:38    PDP-9/GRAPHIC II VERSION OF SPACEWAR                                            PAGE  64

                                            SHIP   MANAGEMENT ROUTINES -- DRAWING THE PICTURE -- SHIPS -- SHORT, FAT SHIP

                    2420    *       
                    2421    *       
                    2422    *       SHIP 2:
                    2423    *       
                    2424    *       SHORT, FAT SHIP
                    2425    *       
    002717  113113  2426    S2PIC   113113  
                    2427                    
    002720  113111  2428            113111  
                    2429                    
    002721  116313  2430            116313  
                    2431                    
    002722  131111  2432            131111  
                    2433                    
    002723  161151  2434            161151  
                    2435                    
    002724  111633  2436            111633  
                    2437                    
    002725  365114  2438            365114  
                    2439                    
    002726  777777  2440            777777  
                    2441    *       
                    2442    *       
                    2443    *       DAMAGED VERSION
                    2444    *       
    002727  113113  2445    S2PICD  113113  
                    2446                    
    002730  113111  2447            113111  
                    2448                    
    002731  111151  2449            111151  
                    2450                    
    002732  111511  2451            111511  
                    2452                    
    002733  477777  2453            477777  
WAR         08/13/80    20:30:38    PDP-9/GRAPHIC II VERSION OF SPACEWAR                                            PAGE  65

                                            SHIP   MANAGEMENT ROUTINES -- DRAWING THE PICTURE -- SHIPS -- U.S.S. ENTERPRISE

                    2455    *       
                    2456    *       
                    2457    *       SHIP 3:
                    2458    *       
                    2459    *       U.S.S. ENTERPRISE
                    2460    *       
    002734  022333  2461    S3PIC   022333  
                    2462                    
    002735  111155  2463            111155  
                    2464                    
    002736  544113  2465            544113  
                    2466                    
    002737  311111  2467            311111  
                    2468                    
    002740  222260  2469            222260  
                    2470                    
    002741  000066  2471            000066  
                    2472                    
    002742  111111  2473            111111  
                    2474                    
    002743  111164  2475            111164  
                    2476                    
    002744  445114  2477            445114  
                    2478                    
    002745  477777  2479            477777  
                    2480    *       
                    2481    *       
                    2482    *       DAMAGED VERSION
                    2483    *       
    002746  022333  2484    S3PICD  022333  
                    2485                    
    002747  111155  2486            111155  
                    2487                    
    002750  544113  2488            544113  
                    2489                    
    002751  311111  2490            311111  
                    2491                    
    002752  222244  2492            222244  
                    2493                    
    002753  451144  2494            451144  
                    2495                    
    002754  777777  2496            777777  
WAR         08/13/80    20:30:38    PDP-9/GRAPHIC II VERSION OF SPACEWAR                                            PAGE  66

                                            SHIP   MANAGEMENT ROUTINES -- DRAWING THE PICTURE -- SHIPS -- DISCOVERY

                    2498    *       
                    2499    *       
                    2500    *       SHIP 4:
                    2501    *       
                    2502    *       DISCOVERY
                    2503    *       
    002755  122333  2504    S4PIC   122333  
                    2505                    
    002756  111155  2506            111155  
                    2507                    
    002757  541311  2508            541311  
                    2509                    
    002760  153111  2510            153111  
                    2511                    
    002761  531115  2512            531115  
                    2513                    
    002762  311151  2514            311151  
                    2515                    
    002763  232232  2516            232232  
                    2517                    
    002764  231114  2518            231114  
                    2519                    
    002765  463344  2520            463344  
                    2521                    
    002766  446304  2522            446304  
                    2523                    
    002767  444443  2524            444443  
                    2525                    
    002770  355777  2526            355777  
                    2527    *       
                    2528    *       
                    2529    *       DAMAGED VERSION
                    2530    *       
    002771  122333  2531    S4PICD  122333  
                    2532                    
    002772  111155  2533            111155  
                    2534                    
    002773  541311  2535            541311  
                    2536                    
    002774  153111  2537            153111  
                    2538                    
    002775  531115  2539            531115  
                    2540                    
    002776  311151  2541            311151  
                    2542                    
    002777  211111  2543            211111  
                    2544                    
    003000  144335  2545            144335  
                    2546                    
    003001  577777  2547            577777  
WAR         08/13/80    20:30:38    PDP-9/GRAPHIC II VERSION OF SPACEWAR                                            PAGE  67

                                            OBJECT MANAGEMENT SUBROUTINES -- CALCULATION -- GRAVITY EFFECT

    003002  740040  2549    GRAV    XX      
                    2550    *       
                    2551    *       
                    2552    *       CHECK FOR 'GRAVITY OFF' SWITCH OPTION
                    2553    *       
    003003  143117  2554            DZM     XGRAV           INITIALIZE THE X-EFFECT OF GRAVITY
    003004  143120  2555            DZM     YGRAV           INITIALIZE THE Y-EFFECT OF GRAVITY
                    2556                    
    003005  203413  2557            LAC     SWITCH          GET BACK THE SWITCHES
    003006  506071  2558            AND     (000400)        CHECK FOR GRAVITY OFF
    003007  740200  2559            SZA                     IF SO,
    003010  623002  2560            JMP     GRAV,I          RETURN
                    2561    *       
                    2562    *       
                    2563    *       CALCULATE X^2
                    2564    *       
    003011  224071  2565    GRAV1   LAC     SQXLOC,I        ***
    003012  664000  2566            GSM                     * PREPARE THE X LOCATION FOR SIGNED MULTIPLICATION
    003013  043016  2567            DAC     GRAV2           ***
                    2568                    
    003014  224071  2569            LAC     SQXLOC,I        GET THE X LOCATION
                    2570                    
    003015  657122  2571            MULS                    MULTIPLY THE X LOCATION BY ITSELF
    003016  000000  2572    GRAV2   0       
                    2573                    
    003017  043530  2574            DAC     TEMP0           ***
    003020  641002  2575            LACQ                    * SAVE THE RESULTS
    003021  043531  2576            DAC     TEMP1           ***
                    2577    *       
                    2578    *       
                    2579    *       CALCULATE Y^2
                    2580    *       
    003022  224072  2581            LAC     SQYLOC,I        ***
    003023  664000  2582            GSM                     * PREPARE THE Y LOCATION FOR SIGNED MULTIPLICATION
    003024  043027  2583            DAC     GRAV3           ***
                    2584                    
    003025  224072  2585            LAC     SQYLOC,I        GET THE Y LOCATION
                    2586                    
    003026  657122  2587            MULS                    MULTIPLY THE Y LOCATION BY ITSELF
    003027  000000  2588    GRAV3   0       
                    2589                    
    003030  043532  2590            DAC     TEMP2           ***
    003031  641002  2591            LACQ                    * SAVE THE RESULTS
    003032  744000  2592            CLL                     ***
                    2593    *       
                    2594    *       
                    2595    *       CALCULATE X^2+Y^2
                    2596    *       
    003033  343531  2597            TAD     TEMP1           ADD THE LOW ORDER BITS OF Y^2
    003034  652000  2598            LMQ     
                    2599                    
    003035  750010  2600            GLK                     CHECK FOR CARRY
WAR         08/13/80    20:30:38    PDP-9/GRAPHIC II VERSION OF SPACEWAR                                            PAGE  68

                                            OBJECT MANAGEMENT SUBROUTINES -- CALCULATION -- GRAVITY EFFECT

    003036  343530  2601            TAD     TEMP0
    003037  343532  2602            TAD     TEMP2           PUT THE HIGH-ORDER BITS OF X^2+Y^2 IN AC
    003040  660444  2603            NORMS                   AND NORMALIZE X^2+Y^2
    003041  043532  2604            DAC     TEMP2           SAVE THE SIGNIFICANT RESULTS
                    2605                    
    003042  641001  2606            LACS                    GET THE EXPONENT
    003043  346072  2607            TAD     (777744)        IN THE CORRECT FORMAT
    003044  744020  2608            RCR     
    003045  043533  2609            DAC     TEMP3
                    2610    *       
                    2611    *       
                    2612    *       CALCULATE SQUARE ROOT OF X^2+Y^2 (R^2)
                    2613    *       
    003046  203532  2614            LAC     TEMP2           RELOAD X^2+Y^2
    003047  741400  2615            SZL     
    003050  660501  2616            LRSS    1
    003051  043532  2617            DAC     TEMP2
                    2618                    
    003052  103121  2619            JMS     SQRT            AND FIND THE SQUARE ROOT
                    2620                    
    003053  043057  2621            DAC     GRAV4           SAVE THE RESULT AS AN OPERAND FOR A MULTIPLY
                    2622    *       
                    2623    *       
                    2624    *       CALCULATE R^3
                    2625    *       
    003054  203532  2626            LAC     TEMP2           LOAD R^2
    003055  744000  2627            CLL     
                    2628                    
    003056  653122  2629            MUL                     AND MULTIPLY TO GENERATE R(DISTANCE FROM THE SUN)^3
    003057  000000  2630    GRAV4   0       
                    2631                    
    003060  043076  2632            DAC     GRAV5           KEEP THE RESULTS AS DIVISORS
    003061  043110  2633            DAC     GRAV7
                    2634                    
    003062  203533  2635            LAC     TEMP3           GET THE EXPONENT
                    2636                    
    003063  657103  2637            MULS-15. 
    003064  000003  2638            3       
                    2639                    
    003065  660603  2640            LLSS    3
    003066  300540  2641            ADD     GRAVT
    003067  246073  2642            XOR     (LLSS 0)
    003070  043101  2643            DAC     GRAV6
    003071  043113  2644            DAC     GRAV8
WAR         08/13/80    20:30:38    PDP-9/GRAPHIC II VERSION OF SPACEWAR                                            PAGE  69

                                            OBJECT MANAGEMENT SUBROUTINES -- CALCULATION -- GRAVITY EFFECT

                    2646    *       
                    2647    *       
                    2648    *       CALCULATE THE EFFECT OF GRAVITY ON THE X LOCATION
                    2649    *       
    003072  224071  2650            LAC     SQXLOC,I        ***
    003073  660504  2651            LRSS    4               * PREPARE THE X LOCATION FOR SIGNED DIVISION
    003074  744000  2652            CLL                     ***
                    2653                    
    003075  644323  2654            DIVS                    DIVIDE THE X LOCATION BY THE CUBE OF THE RADIUS
    003076  000000  2655    GRAV5   0       
                    2656                    
    003077  641002  2657            LACQ                    GET THE DIVIDEND IN THE AC
    003100  660522  2658            LRSS    18.             SHIFT IT BACK INTO THE MQ, SETTING THE AC TO REFLECT THE SIGN
                    2659                    
    003101  740040  2660    GRAV6   HLT     
    003102  740001  2661            CMA                     GRAVITY IS A NEGATIVE FACTOR
                    2662                    
    003103  043117  2663            DAC     XGRAV
                    2664    *       
                    2665    *       
                    2666    *       CALCULATE THE EFFECT OF GRAVITY ON THE Y LOCATION
                    2667    *       
    003104  224072  2668            LAC     SQYLOC,I        ***
    003105  660504  2669            LRSS    4               * PREPARE THE Y LOCATION FOR SIGNED DIVISION
    003106  744000  2670            CLL                     ***
                    2671                    
    003107  644323  2672            DIVS                    DIVIDE THE Y LOCATION BY THE CUBE OF THE RADIUS
    003110  000000  2673    GRAV7   0       
                    2674                    
    003111  641002  2675            LACQ                    GET THE DIVIDEND IN THE AC
    003112  660522  2676            LRSS    18.             SHIFT IT BACK INTO THE MQ, SETTING THE AC TO REFLECT THE SIGN
                    2677                    
    003113  740040  2678    GRAV8   HLT     
    003114  740001  2679            CMA                     GRAVITY IS A NEGATIVE FACTOR
                    2680                    
    003115  043120  2681            DAC     YGRAV
                    2682    *       
                    2683    *       
                    2684    *       RETURN
                    2685    *       
    003116  623002  2686            JMP     GRAV,I          RETURN
                    2687                    
                    2688                    
    003117  000000  2689    XGRAV   0       
    003120  000000  2690    YGRAV   0       
WAR         08/13/80    20:30:38    PDP-9/GRAPHIC II VERSION OF SPACEWAR                                            PAGE  70

                                            OBJECT MANAGEMENT SUBROUTINES -- CALCULATION -- SQUARE ROOT

    003121  740040  2692    SQRT    XX      
                    2693                    
    003122  546032  2694            SAD     (777777)
    003123  603155  2695            JMP     SQRT4
                    2696                    
    003124  043530  2697            DAC     TEMP0
    003125  641002  2698            LACQ    
    003126  043531  2699            DAC     TEMP1
                    2700                    
    003127  224076  2701            LAC     SQDIST,I
    003130  043134  2702            DAC     SQRT2
                    2703                    
    003131  203530  2704            LAC     TEMP0
                    2705                    
    003132  744000  2706    SQRT1   CLL     
                    2707                    
    003133  640323  2708            DIV     
    003134  000000  2709    SQRT2   0       
                    2710                    
    003135  741400  2711            SZL     
    003136  603157  2712            JMP     SQRT5
                    2713                    
    003137  641002  2714            LACQ    
    003140  564076  2715            SAD     SQDIST,I
    003141  623121  2716            JMP     SQRT,I
                    2717                    
    003142  345773  2718            TAD     (1)
    003143  564076  2719            SAD     SQDIST,I
    003144  623121  2720            JMP     SQRT,I
                    2721                    
    003145  364076  2722            TAD     SQDIST,I
    003146  640501  2723            LRS     1
                    2724                    
    003147  064076  2725    SQRT3   DAC     SQDIST,I
    003150  043134  2726            DAC     SQRT2
                    2727                    
    003151  203531  2728            LAC     TEMP1
    003152  652000  2729            LMQ     
    003153  203530  2730            LAC     TEMP0
                    2731                    
    003154  603132  2732            JMP     SQRT1
                    2733                    
    003155  064076  2734    SQRT4   DAC     SQDIST,I
    003156  623121  2735            JMP     SQRT,I
                    2736                    
    003157  750001  2737    SQRT5   CLC     
    003160  603147  2738            JMP     SQRT3
WAR         08/13/80    20:30:38    PDP-9/GRAPHIC II VERSION OF SPACEWAR                                            PAGE  71

                                            OBJECT MANAGEMENT SUBROUTINES -- CALCULATION -- SINE AND COSINE

    003161  740040  2740    SINCOS  XX      
                    2741                    
    003162  043263  2742            DAC     SINE
                    2743                    
    003163  740010  2744            RAL     
    003164  750010  2745            GLK     
    003165  246061  2746            XOR     (NOP)
    003166  043254  2747            DAC     SC6
                    2748                    
    003167  203263  2749            LAC     SINE
    003170  346053  2750            TAD     (200000)
    003171  740010  2751            RAL     
    003172  750010  2752            GLK     
    003173  246061  2753            XOR     (NOP)
    003174  043260  2754            DAC     SC7
                    2755                    
    003175  203263  2756            LAC     SINE
    003176  346055  2757            TAD     (100000)
    003177  506053  2758            AND     (200000)
    003200  660507  2759            LRSS    7
    003201  246061  2760            XOR     (NOP)
    003202  043245  2761            DAC     SC5
                    2762                    
    003203  203263  2763            LAC     SINE
    003204  742010  2764            RTL     
    003205  664000  2765            GSM     
    003206  660502  2766            LRSS    2
                    2767    *       
                    2768    *       
                    2769    *       CONVERT TO RADIANS
                    2770    *       
    003207  653122  2771            MUL                     MULTIPLY
    003210  622077  2772            622077                  BY 2*PI
                    2773    *       
                    2774    *       
                    2775    *       SUBTITUTE X INTO ALGORITHMIC FORMULA
                    2776    *       
    003211  043214  2777            DAC     SC1             SAVE X
    003212  043231  2778            DAC     SC3
                    2779    *       
                    2780    *       
                    2781    *       CALCULATE X^2 AND SUBSTITUTE IT INTO ALGORITHMIC FORMULA
                    2782    *       
    003213  657122  2783            MULS                    CALCULATE X^2
    003214  000000  2784    SC1     0                       *** X GOES HERE ***
                    2785                    
    003215  660603  2786            LLSS    3               ADJUST DECIMAL POINT
                    2787                    
    003216  043224  2788            DAC     SC2             SAVE X^2
    003217  043242  2789            DAC     SC4
WAR         08/13/80    20:30:38    PDP-9/GRAPHIC II VERSION OF SPACEWAR                                            PAGE  72

                                            OBJECT MANAGEMENT SUBROUTINES -- CALCULATION -- SINE AND COSINE

                    2791    *       
                    2792    *       
                    2793    *       APPROXIMATE SIN(X) = X-(X^3)/3'+(X^5)/5'
                    2794    *       
    003220  657122  2795            MULS                    CALCULATE (X^2)/5!
    003221  004211  2796            004211  
                    2797                    
    003222  306074  2798            ADD     (765252)        CALCULATE (X^2)/5!-1/3!
                    2799                    
    003223  657122  2800            MULS                    CALCULATE (X^2)*((X^2)/5!-1/3!) = (X^4)/5!-(X^2)/3!
    003224  000000  2801    SC2     0                       *** X^2 GOES HERE ***
                    2802                    
    003225  660603  2803            LLSS    3               ADJUST DECIMAL POINT
                    2804                    
    003226  306055  2805            ADD     (100000)        CALCULATE (X^4)/5!-(X^2)/3!+1
    003227  744000  2806            CLL     
                    2807                    
    003230  657122  2808            MULS                    CALCULATE X*((X^4)/5!-(X^2)/3!+1) = (X^5)/5!-(X^3)/3!+X = SIN(X)
    003231  000000  2809    SC3     0                       *** X GOES HERE ***
                    2810                    
    003232  660603  2811            LLSS    3               ADJUST DECIMAL POINT
                    2812                    
    003233  043263  2813            DAC     SINE
    003234  043264  2814            DAC     COSINE
WAR         08/13/80    20:30:38    PDP-9/GRAPHIC II VERSION OF SPACEWAR                                            PAGE  73

                                            OBJECT MANAGEMENT SUBROUTINES -- CALCULATION -- SINE AND COSINE

                    2816    *       
                    2817    *       
                    2818    *       APPROXIMATE COS(X) = 1-(X^2)/2'+(X^4)/4'
                    2819    *       
    003235  203224  2820            LAC     SC2             GET BACK X^2
                    2821                    
    003236  657122  2822            MULS                    CALCULATE (X^2)/4!
    003237  025253  2823            025253  
                    2824                    
    003240  306075  2825            ADD     (737777)        CALCULATE (X^2)/4!-1/2!
                    2826                    
    003241  657122  2827            MULS                    CALCULATE (X^2)*((X^2)/4!-1/2!) = (X^4)/4!-(X^2)/2!
    003242  000000  2828    SC4     0                       *** X^2 GOES HERE ***
                    2829                    
    003243  660603  2830            LLSS    3               ADJUST DECIMAL POINT
                    2831                    
    003244  306055  2832            ADD     (100000)        CALCULATE (X^4)/4!-(X^2)/2!+1 = COS(X)
                    2833                    
    003245  740040  2834    SC5     HLT                     NOP : COSINE :: SKP : SINE
    003246  043264  2835            DAC     COSINE
    003247  403245  2836            XCT     SC5
    003250  741000  2837            SKP     
    003251  043263  2838            DAC     SINE
    003252  203263  2839            LAC     SINE
    003253  740200  2840            SZA     
                    2841                    
    003254  740040  2842    SC6     HLT                     (NOP) : (X=>+0) :: (CMA) : (X<=-0)
    003255  043263  2843            DAC     SINE
    003256  203264  2844            LAC     COSINE
    003257  740200  2845            SZA     
                    2846                    
    003260  740040  2847    SC7     HLT                     (NOP) : (ABS(X)<1/2*PI) :: (CMA) : (ABS(X)>1/2*PI)
    003261  043264  2848            DAC     COSINE
                    2849    *       
                    2850    *       
                    2851    *       RETURN
                    2852    *       
    003262  623161  2853            JMP     SINCOS,I
                    2854                    
                    2855                    
    003263  000000  2856    SINE    0       
    003264  000000  2857    COSINE  0       
WAR         08/13/80    20:30:38    PDP-9/GRAPHIC II VERSION OF SPACEWAR                                            PAGE  74

                                            MISCELLANEOUS COMMON SUBROUTINES -- PSEUDO-RANDOM NUMBER GENERATION

    003265  740040  2859    RANDOM  XX      
                    2860                    
    003266  206076  2861            LAC     (613331)        GET A PSEUDO-RANDOM CONSTANT
    003267  243274  2862            XOR     RND             ***
    003270  660701  2863            ALSS    1               * TRANSMOGRIFY IT USING THE PREVIOUSLY GENERATED PSEUDO-RANDOM NUMBER
    003271  303274  2864            ADD     RND             ***
    003272  043274  2865            DAC     RND             A NEW PSEUDO-RANDOM NUMBER
                    2866                    
    003273  623265  2867            JMP     RANDOM,I        RETURN
                    2868                    
                    2869                    
    003274  000000  2870    RND     0       
                    2871    *       
                    2872    *       
                    2873    *       GENERATE RANDOM POSITIONS OF THE SHIPS
                    2874    *       
    003275  740040  2875    RNDPOS  XX      
                    2876                    
    003276  103265  2877            JMS     RANDOM          GET A PSEUDO-RANDOM NUMBER
    003277  652000  2878            LMQ                     SHOVE INTO MQ
    003300  644000  2879            ABS     
    003301  043530  2880            DAC     TEMP0           SAVE IN TEMP
                    2881                    
    003302  103265  2882            JMS     RANDOM          GET A PSEUDO-RANDOM NUMBER
    003303  043531  2883            DAC     TEMP1           SAVE IN TEMP
    003304  644000  2884            ABS     
    003305  343530  2885            TAD     TEMP0           ***
    003306  740100  2886            SMA                     * SEE IF OK
    003307  603276  2887            JMP     RNDPOS+1        ***
                    2888                    
    003310  203531  2889            LAC     TEMP1
                    2890                    
    003311  623275  2891            JMP     RNDPOS,I        RETURN
WAR         08/13/80    20:30:38    PDP-9/GRAPHIC II VERSION OF SPACEWAR                                            PAGE  75

                                            MISCELLANEOUS COMMON SUBROUTINES -- PSEUDO-RANDOM NUMBER GENERATION

                    2893    *       
                    2894    *       
                    2895    *       GENERATE RANDOM POSITION OF THE SUN
                    2896    *       
    003312  103265  2897    RNDSUN  JMS     RANDOM          GET A PSEUDO-RANDOM NUMBER
    003313  506077  2898            AND     (1777)          IN RANGE 0-1023.
    003314  306100  2899            ADD     (140001)        MAKE A RANDOM SCOPE COMMAND OUT OF IT
    003315  043355  2900            DAC     XPOINT          SET UP FOR SCOPE ROUTINE
                    2901                    
    003316  206101  2902            LAC     (ADD XPOINT)    ADD =:
    003317  043344  2903            DAC     SCOPEX          XOR
                    2904                    
    003320  103265  2905            JMS     RANDOM          GET A PSEUDO-RANDOM NUMBER
    003321  506077  2906            AND     (1777)          IN RANGE 0-1023.
    003322  306102  2907            ADD     (174001)        MAKE A RANDOM SCOPE COMMAND OUT OF IT
    003323  043356  2908            DAC     YPOINT          SET UP FOR SCOPE ROUTINE
                    2909                    
    003324  206103  2910            LAC     (ADD YPOINT)    ADD =:
    003325  043350  2911            DAC     SCOPEY          XOR
                    2912                    
    003326  600700  2913            JMP     AGAIN           BEGIN A NEW GAME
                    2914    *       
                    2915    *       
                    2916    *       PUT THE SUN BACK IN THE CENTER OF THE SCREEN
                    2917    *       
    003327  206104  2918    CENTER  LAC     (141000)        SCOPE COMMAND -- POINT MODE -- FOR X-COORDINATE
    003330  043355  2919            DAC     XPOINT
                    2920                    
    003331  206105  2921            LAC     (XOR XPOINT)    XOR =:
    003332  043344  2922            DAC     SCOPEX          ADD
                    2923                    
    003333  206106  2924            LAC     (175000)        SCOPE COMMAND -- POINT MODE -- FOR Y-COORDINATE
    003334  043356  2925            DAC     YPOINT
                    2926                    
    003335  206107  2927            LAC     (XOR YPOINT)    XOR =:
    003336  043350  2928            DAC     SCOPEY          ADD
                    2929                    
    003337  600700  2930            JMP     AGAIN           BEGIN A NEW GAME
WAR         08/13/80    20:30:38    PDP-9/GRAPHIC II VERSION OF SPACEWAR                                            PAGE  76

                                            MISCELLANEOUS COMMON SUBROUTINES -- SCOPE DRAWING

                    2932    *       
                    2933    *       MOVES THE SCOPE POINTER TO THE X AND Y LOCATIONS
                    2934    *       SPECIFIED IN XLOC AND YLOC
                    2935    *       
    003340  740040  2936    SCOPE   XX      
                    2937    *       
                    2938    *       
                    2939    *       CLEAR THE LINK FOR UPCOMING SHIFTS
                    2940    *       
    003341  744000  2941            CLL     
                    2942    *       
                    2943    *       
                    2944    *       MOVE TO THE X-COORDINATE INVISIBLY
                    2945    *       
    003342  203353  2946            LAC     XLOC            GET THE X-COORDINATE
                    2947                    
    003343  640510  2948            LRS     8.              POSITION IN THE FIELD
                    2949                    
    003344  243355  2950    SCOPEX  XOR     XPOINT          OF A POINT-MODE SCOPE COMMAND
                    2951                    
    003345  060010  2952            DAC     X0,I            PUT IT IN THE SCOPE BUFFER
                    2953    *       
                    2954    *       
                    2955    *       MOVE TO THE Y-COORDINATE AND DISPLAY THE POINT
                    2956    *       
    003346  203354  2957            LAC     YLOC            GET THE Y-COORDINATE
                    2958                    
    003347  640510  2959            LRS     8.              POSITION IN THE FIELD
                    2960                    
    003350  243356  2961    SCOPEY  XOR     YPOINT          OF A POINT-MODE SCOPE COMMAND
                    2962                    
    003351  060010  2963            DAC     X0,I            PUT IT IN THE SCOPE BUFFER
                    2964    *       
                    2965    *       
                    2966    *       RETURN
                    2967    *       
    003352  623340  2968            JMP     SCOPE,I         AND RETURN
                    2969                    
                    2970                    
    003353  000000  2971    XLOC    0       
    003354  000000  2972    YLOC    0       
                    2973                    
    003355  141000  2974    XPOINT  141000                  SCOPE COMMAND -- POINT MODE -- FOR X-COORDINATE
    003356  175000  2975    YPOINT  175000                  SCOPE COMMAND -- POINT MODE -- FOR Y-COORDINATE
WAR         08/13/80    20:30:38    PDP-9/GRAPHIC II VERSION OF SPACEWAR                                            PAGE  77

                                            MISCELLANEOUS COMMON SUBROUTINES -- PUSHBUTTON INTERFACE

    003357  740040  2977    BUTTIN  XX      
                    2978    *       
                    2979    *       
                    2980    *       MAKE THE PUSHBUTTONS LOOK LIKE THE SWITCHES
                    2981    *       
    003360  203414  2982            LAC     BUTTON          GET BACK THE PUSHBUTTONS
                    2983                    
    003361  744000  2984            CLL     
    003362  640516  2985            LRS     18.-4           ***
    003363  640710  2986            ALS     18.-4-6         * MAKE THE PUSHBUTTONS LOOK LIKE THE SWITCHES
    003364  640605  2987            LLS     6-1             ***
                    2988                    
    003365  043530  2989            DAC     TEMP0           ***
    003366  640701  2990            ALS     1               * FORM THE WARP BITS
    003367  503530  2991            AND     TEMP0           ***
                    2992                    
    003370  640701  2993            ALS     1               ***
    003371  506110  2994            AND     (400040)        * POSITION, EXTRACT, AND SAVE THEM
    003372  043531  2995            DAC     TEMP1           ***
                    2996                    
    003373  243530  2997            XOR     TEMP0           ***
    003374  640704  2998            ALS     4               * FORM THE INVISIBILITY BITS
    003375  503531  2999            AND     TEMP1           ***
                    3000                    
    003376  652000  3001            LMQ                     SAVE THEM FOR A MOMENT
                    3002                    
    003377  243531  3003            XOR     TEMP1           IF INVISIBLE THEN NOT A WARP
    003400  043531  3004            DAC     TEMP1           SO FIX WARP BITS ACCORDINGLY
                    3005                    
    003401  641505  3006            EAECLA!LRS 5            MOVE THE INVISIBILITY BITS TO WHERE THEY BELONG
    003402  641002  3007            LACQ    
                    3008                    
    003403  243531  3009            XOR     TEMP1           ADD IN THE WARP BITS
    003404  243530  3010            XOR     TEMP0           ADD IN THE REST OF THE PUSHBUTTONS
                    3011                    
    003405  546111  3012            SAD     (370037)        CHECK FOR ALL PUSHBUTTONS PUSHED
    003406  603410  3013            JMP     GROWTH          EXIT TO GROWTH IF SO
                    3014                    
    003407  623357  3015            JMP     BUTTIN,I        RETURN
                    3016    *       
                    3017    *       
                    3018    *       ALL PUSHBUTTONS PUSHED -- SHUT DOWN
                    3019    *       
    003410  703302  3020    GROWTH  CAF                     CLEAR ALL FLAGS
    003411  700501  3021            CDF                     CLEAR DISPLAY FLAGS
    003412  700004  3022            CLOF                    TURN THE CLOCK OFF
                    3023                    
                    3024                    
    003413  777777  3025    SWITCH  777777                  ACCUMULATOR SWITCHES
    003414  776000  3026    BUTTON  776000                  PUSHBUTTONS
                    3027                    
    003415  370037  3028    BUTINS  370037                  PUSHBUTTONS ENCODED FOR PROGRAM USE
WAR         08/13/80    20:30:38    PDP-9/GRAPHIC II VERSION OF SPACEWAR                                            PAGE  78

                                            PROGRAM INTERRUPT SERVICE ROUTINES -- KEYBOARD SERVICE

    003416  506112  3030    PATCH   AND     (177)           MASK TO SEVEN BITS
    003417  043447  3031            DAC     CHAR
                    3032                    
    003420  546113  3033            SAD     (072)           CHECK FOR COLON
    003421  603436  3034            JMP     PAT1
                    3035                    
    003422  546114  3036            SAD     (073)           CHECK FOR SEMICOLON
    003423  603440  3037            JMP     PAT2
                    3038                    
    003424  346115  3039            TAD     (-060)          ***
    003425  741100  3040            SPA                     * IGNORE CONTROL CHARACTERS AND PUNCTUATION MARKS
    003426  603511  3041            JMP     INT6            ***
                    3042                    
    003427  043447  3043            DAC     CHAR
                    3044                    
    003430  203451  3045            LAC     DATUM
    003431  744000  3046            CLL                     ***
    003432  640703  3047            ALS     3               * ACCUMULATE ANOTHER OCTIT
    003433  303447  3048            ADD     CHAR            ***
    003434  043451  3049            DAC     DATUM
                    3050                    
    003435  603511  3051            JMP     INT6            WAIT FOR ANOTHER CHARACTER TO COME BY
                    3052                    
    003436  763450  3053    PAT1    LAW     LOC             SET UP 'LOC' TO POINT TO ITSELF
    003437  043450  3054            DAC     LOC
                    3055                    
    003440  203451  3056    PAT2    LAC     DATUM           ***
    003441  143451  3057            DZM     DATUM           * MAKE THE PATCH AND RESET THE ACCUMULATOR
    003442  063450  3058            DAC     LOC,I           ***
                    3059                    
    003443  203447  3060            LAC     CHAR            GET BACK CHARACTER INPUT
    003444  546114  3061            SAD     (073)           ***
    003445  443450  3062            ISZ     LOC             * IF SEMICOLON TYPED, INCREMENT PATCH ADDRESS
    003446  603511  3063            JMP     INT6            ***
                    3064                    
                    3065                    
    003447  000377  3066    CHAR    377                     CHARACTER INPUT
                    3067                    
    003450  000003  3068    LOC     THREE                   PATCH ADDRESS
    003451  600600  3069    DATUM   JMP     START           DATA ACCUMULATOR
WAR         08/13/80    20:30:38    PDP-9/GRAPHIC II VERSION OF SPACEWAR                                            PAGE  79

                                            PROGRAM INTERRUPT SERVICE ROUTINES

    003452  043517  3071    INT     DAC     INTA            SAVE THE ACCUMULATOR REGISTER
    003453  443274  3072            ISZ     RND
    003454  740000  3073            NOP     
    003455  701052  3074            LDS                     LOAD DISPLAY STATUS
    003456  740100  3075            SMA                     CHECK FOR A TRAP INTERRUPT
    003457  603463  3076            JMP     INT1            NO, SO CHECK FURTHER
    003460  700612  3077            LDB                     LOAD THE LAST SCOPE INSTRUCTION WE EXECUTED
    003461  741100  3078            SPA                     WAS IT A TRAP INSTRUCTION?
    003462  603513  3079            JMP     INT8            YES
                    3080                    
    003463  506000  3081    INT1    AND     (040000)        CHECK FOR A STOP TRAP
    003464  740200  3082            SZA                     NO, SO CHECK FURTHER
    003465  603512  3083            JMP     INT7            YES
                    3084                    
    003466  700001  3085            CLSF                    CHECK FOR A CLOCK INTERRUPT
    003467  603474  3086            JMP     INT2            NO, SO CHECK FURTHER
    003470  206116  3087            LAC     (JMP BUMP)      YES, SO PUT A JUMP TO THE COLLISION ROUTINE
    003471  040003  3088            DAC     THREE           IN LOCATION THREE, TO RESTART COLLISION CHECKING
    003472  700044  3089            CLON                    TURN THE CLOCK BACK ON
    003473  603514  3090            JMP     INT9            AND EXIT
                    3091                    
    003474  704401  3092    INT2    SPB                     CHECK FOR A PUSHBUTTON INTERRUPT
    003475  603500  3093            JMP     INT3            NO, SO CHECK FURTHER
    003476  704404  3094            CPB                     YES, SO CLEAR THE FLAG
    003477  603514  3095            JMP     INT9            AND EXIT
                    3096                    
    003500  700301  3097    INT3    KSF                     CHECK FOR A TELETYPE KEYBOARD INTERRUPT
    003501  603504  3098            JMP     INT4            NO, SO CHECK FURTHER
    003502  700312  3099            KRB                     YES, SO GET THE CHARACTER THAT WAS TYPED
    003503  603416  3100            JMP     PATCH           GO INTERPRET IT
                    3101                    
    003504  704301  3102    INT4    SCK                     CHECK FOR A CONSOLE KEYBOARD INTERRUPT
    003505  603510  3103            JMP     INT5            NO, SO CHECK FURTHER
    003506  704316  3104            LCK!CCK                 YES, SO GET THE CHARACTER THAT WAS TYPED
    003507  603416  3105            JMP     PATCH           GO INTERPRET IT
                    3106                    
    003510  703302  3107    INT5    CAF                     CHECK NO FURTHER
                    3108                    
    003511  700044  3109    INT6    CLON                    TURN ON THE CLOCK
                    3110                    
    003512  203520  3111    INT7    LAC     PSCBUF
                    3112                    
    003513  700547  3113    INT8    BEG                     TURN ON THE SCOPE DISPLAY
                    3114                    
    003514  203517  3115    INT9    LAC     INTA            RESTORE THE ACCUMULATOR REGISTER
    003515  700042  3116            ION                     TURN ON THE INTERUPT SYSTEM
    003516  620000  3117            JMP     PI,I            AND RETURN WHENCE WE CAME
                    3118                    
                    3119                    
    003517  000000  3120    INTA    0                       AC SAVE LOCATION ON INTERRUPTS
WAR         08/13/80    20:30:38    PDP-9/GRAPHIC II VERSION OF SPACEWAR                                            PAGE  80

                                            HIGH CORE DEFINITIONS

                    3122    *       
                    3123    *       
                    3124    *       SCOPE BUFFER POINTERS
                    3125    *       
    003520  006124  3126    PSCBUF  SCBUF                   POINTER TO THE BEGINNING OF THE SCOPE BUFFERS
                    3127                    
        003521      3128    PSBUF1  .BLOCK  1               POINTER TO THE STAR SCOPE BUFFER
        003522      3129    PSBUF2  .BLOCK  1               POINTER TO THE STAR SCOPE BUFFER
                    3130                    
        003523      3131    STREND  .BLOCK  1               POINTER TO THE END OF THE STAR SCOPE BUFFER
                    3132                    
        003524      3133    PBUFF1  .BLOCK  1               POINTER TO THE FIRST SCOPE BUFFER
        003525      3134    PBUFF2  .BLOCK  1               POINTER TO THE SECOND SCOPE BUFFER
                    3135                    
        003526      3136    OFFSET  .BLOCK  1               OFFSET BETWEEN BUFFERS
                    3137    *       
                    3138    *       
                    3139    *       HANDICAP TABLE POINTER
                    3140    *       
        003527      3141    HANDI   .BLOCK  1               POINTER TO THE PARAMETER TABLE CURRENTLY IN USE
                    3142    *       
                    3143    *       
                    3144    *       TEMPORARY STORAGE
                    3145    *       
        003530      3146    TEMP0   .BLOCK  1               TEMPORARY STORAGE
        003531      3147    TEMP1   .BLOCK  1               TEMPORARY STORAGE
        003532      3148    TEMP2   .BLOCK  1               TEMPORARY STORAGE
        003533      3149    TEMP3   .BLOCK  1               TEMPORARY STORAGE
                    3150    *       
                    3151    *       
                    3152    *       COUNTERS
                    3153    *       
        003534      3154    OBJCNT  .BLOCK  1               COMPLEMENT OF NUMBER OF OBJECTS CHECKED AGAINST COLLISION
        003535      3155    SHPCNT  .BLOCK  1               COMPLEMENT OF NUMBER OF SHIPS CHECKED AGAINST COLLISION
                    3156                    
        003536      3157    NSHIP   .BLOCK  1               COMPLEMENT OF NUMBER OF SURVIVING SHIPS
                    3158    *       
                    3159    *       
                    3160    *       GAME TIMERS
                    3161    *       
        003537      3162    GAMTIM  .BLOCK  1               TIMER TO TIME OUT GAME
                    3163    *       
                    3164    *       
                    3165    *       STAR TIMER
                    3166    *       
        003540      3167    STIMER  .BLOCK  1               STAR MOTION TIMER
                    3168    *       
                    3169    *       
                    3170    *       STAR TABLE POINTERS
                    3171    *       
        003541      3172    SRANGE  .BLOCK  1               X-COORDINATE RANGE DEFINITION
        003542      3173    PSTABL  .BLOCK  1               POINTER TO THE STAR TABLE
WAR         08/13/80    20:30:38    PDP-9/GRAPHIC II VERSION OF SPACEWAR                                            PAGE  81

                                            HIGH CORE DEFINITIONS -- OBJECT DEFINITION TABLE -- OBJECT DEFINITIONS

                    3175    *       
                    3176    *       
                    3177    *       TRANSFER VECTOR -- MANAGEMENT ROUTINE ADDRESSES OF SHIPS AND BULLETS
                    3178    *       
        003543      3179    SXTRAN  .BLOCK  NUMOBJ
        003543      3180    S1TRAN  .EQU    SXTRAN+1-1
        003544      3181    S2TRAN  .EQU    SXTRAN+2-1
        003545      3182    S3TRAN  .EQU    SXTRAN+3-1
        003572      3183    TRNEND  .EQU    SXTRAN+NUMOBJ-1
                    3184    *       
                    3185    *       
                    3186    *       X LOCATIONS OF SHIPS AND BULLETS
                    3187    *       
        003573      3188    SXXLOC  .BLOCK  NUMOBJ
        003573      3189    S1XLOC  .EQU    SXXLOC+1-1
        003574      3190    S2XLOC  .EQU    SXXLOC+2-1
        003575      3191    S3XLOC  .EQU    SXXLOC+3-1
                    3192    *       
                    3193    *       
                    3194    *       Y LOCATIONS OF SHIPS AND BULLETS
                    3195    *       
        003623      3196    SXYLOC  .BLOCK  NUMOBJ
        003623      3197    S1YLOC  .EQU    SXYLOC+1-1
        003624      3198    S2YLOC  .EQU    SXYLOC+2-1
        003625      3199    S3YLOC  .EQU    SXYLOC+3-1
                    3200    *       
                    3201    *       
                    3202    *       X VELOCITIES OF SHIPS AND BULLETS
                    3203    *       
        003653      3204    SXXVEL  .BLOCK  NUMOBJ
                    3205    *       
                    3206    *       
                    3207    *       Y VELOCITIES OF SHIPS AND BULLETS
                    3208    *       
        003703      3209    SXYVEL  .BLOCK  NUMOBJ
                    3210    *       
                    3211    *       
                    3212    *       MULTI-PURPOSE TIMERS OF SHIPS AND BULLETS
                    3213    *       
        003733      3214    SXTIME  .BLOCK  NUMOBJ
                    3215    *       
                    3216    *       
                    3217    *       DISTANCES FROM THE SUN OF SHIPS AND BULLETS
                    3218    *       
        003763      3219    SXDIST  .BLOCK  NUMOBJ
WAR         08/13/80    20:30:38    PDP-9/GRAPHIC II VERSION OF SPACEWAR                                            PAGE  82

                                            HIGH CORE DEFINITIONS -- OBJECT DEFINITION TABLE -- SHIP DEFINITIONS

                    3221    *       
                    3222    *       
                    3223    *       ANGLE OF SHIPS
                    3224    *       
        004013      3225    SXANGL  .BLOCK  NUMSHP
        004013      3226    S1ANGL  .EQU    SXANGL+1-1
        004014      3227    S2ANGL  .EQU    SXANGL+2-1
        004015      3228    S3ANGL  .EQU    SXANGL+3-1
                    3229    *       
                    3230    *       
                    3231    *       ANGULAR MOMENTUM OF SHIPS
                    3232    *       
        004016      3233    SXROLL  .BLOCK  NUMSHP
                    3234    *       
                    3235    *       
                    3236    *       FUEL SUPPLY OF SHIPS
                    3237    *       
        004021      3238    SXFUEL  .BLOCK  NUMSHP
        004021      3239    S1FUEL  .EQU    SXFUEL+1-1
        004022      3240    S2FUEL  .EQU    SXFUEL+2-1
        004023      3241    S3FUEL  .EQU    SXFUEL+3-1
                    3242    *       
                    3243    *       
                    3244    *       BULLET SUPPLY OF SHIPS
                    3245    *       
        004024      3246    SXBULL  .BLOCK  NUMSHP
        004024      3247    S1BULL  .EQU    SXBULL+1-1
        004025      3248    S2BULL  .EQU    SXBULL+2-1
        004026      3249    S3BULL  .EQU    SXBULL+3-1
                    3250    *       
                    3251    *       
                    3252    *       POINTERS TO THE PICTURES OF THE SHIPS
                    3253    *       
        004027      3254    SXPICP  .BLOCK  NUMSHP
        004027      3255    S1PICP  .EQU    SXPICP+1-1
        004030      3256    S2PICP  .EQU    SXPICP+2-1
        004031      3257    S3PICP  .EQU    SXPICP+3-1
                    3258    *       
                    3259    *       
                    3260    *       POINTERS TO THE PICTURES OF THE DAMAGED SHIPS
                    3261    *       
        004032      3262    SXPICN  .BLOCK  NUMSHP
        004032      3263    S1PICN  .EQU    SXPICN+1-1
        004033      3264    S2PICN  .EQU    SXPICN+2-1
        004034      3265    S3PICN  .EQU    SXPICN+3-1
                    3266    *       
                    3267    *       
                    3268    *       TIME UNTIL NEXT POSSIBLE WARP
                    3269    *       
        004035      3270    SXWTIM  .BLOCK  NUMSHP
WAR         08/13/80    20:30:38    PDP-9/GRAPHIC II VERSION OF SPACEWAR                                            PAGE  83

                                            HIGH CORE DEFINITIONS -- OBJECT DEFINITION TABLE -- SHIP DEFINITIONS

                    3272    *       
                    3273    *       
                    3274    *       WARP FACTORS
                    3275    *       
        004040      3276    SXWFAC  .BLOCK  NUMSHP
                    3277    *       
                    3278    *       
                    3279    *       INVISIBILITY FLAGS
                    3280    *       
        004043      3281    SXINVF  .BLOCK  NUMSHP
                    3282    *       
                    3283    *       
                    3284    *       INVISIBILITY TIMERS
                    3285    *       
        004046      3286    SXINVT  .BLOCK  NUMSHP
                    3287    *       
                    3288    *       
                    3289    *       DAMAGES
                    3290    *       
        004051      3291    SXDAMS  .BLOCK  NUMSHP
        004051      3292    S1DAMS  .EQU    SXDAMS+1-1
        004052      3293    S2DAMS  .EQU    SXDAMS+2-1
        004053      3294    S3DAMS  .EQU    SXDAMS+3-1
                    3295    *       
                    3296    *       
                    3297    *       THRUST RESTORATION TIMERS
                    3298    *       
        004054      3299    SXTTIM  .BLOCK  NUMSHP
                    3300    *       
                    3301    *       
                    3302    *       BULLET RESTORATION TIMERS
                    3303    *       
        004057      3304    SXBTIM  .BLOCK  NUMSHP
                    3305    *       
                    3306    *       
                    3307    *       LEFT TURN RESTORATION TIMERS
                    3308    *       
        004062      3309    SXLTIM  .BLOCK  NUMSHP
                    3310    *       
                    3311    *       
                    3312    *       RIGHT TURN RESTORATION TIMERS
                    3313    *       
        004065      3314    SXRTIM  .BLOCK  NUMSHP
                    3315    *       
                    3316    *       
                    3317    *       LENGTH OF THE OBJECT DEFINITION TABLE
                    3318    *       
        000325      3319    ODTLEN  .EQU    .-SXTRAN        LENGTH OF THE OBJECT DEFINITION TABLE
WAR         08/13/80    20:30:38    PDP-9/GRAPHIC II VERSION OF SPACEWAR                                            PAGE  84

                                            HIGH CORE DEFINITIONS -- OBJECT DEFINITION TABLE -- POINTERS

                    3321    *       
                    3322    *       
                    3323    *       POINTERS TO THE OBJECT DEFINITION TABLE
                    3324    *       
        004070      3325    SQTRAN  .BLOCK  1
                    3326                    
        004071      3327    SQXLOC  .BLOCK  1
        004072      3328    SQYLOC  .BLOCK  1
                    3329                    
        004073      3330    SQXVEL  .BLOCK  1
        004074      3331    SQYVEL  .BLOCK  1
                    3332                    
        004075      3333    SQTIME  .BLOCK  1
                    3334                    
        004076      3335    SQDIST  .BLOCK  1
                    3336                    
        004077      3337    SQANGL  .BLOCK  1
                    3338                    
        004100      3339    SQROLL  .BLOCK  1
                    3340                    
        004101      3341    SQFUEL  .BLOCK  1
        004102      3342    SQBULL  .BLOCK  1
                    3343                    
        004103      3344    SQPICP  .BLOCK  1
        004104      3345    SQPICN  .BLOCK  1
                    3346                    
        004105      3347    SQWTIM  .BLOCK  1
        004106      3348    SQWFAC  .BLOCK  1
                    3349                    
        004107      3350    SQINVF  .BLOCK  1
        004110      3351    SQINVT  .BLOCK  1
                    3352                    
        004111      3353    SQDAMS  .BLOCK  1
                    3354                    
        004112      3355    SQTTIM  .BLOCK  1
        004113      3356    SQBTIM  .BLOCK  1
        004114      3357    SQLTIM  .BLOCK  1
        004115      3358    SQRTIM  .BLOCK  1
WAR         08/13/80    20:30:38    PDP-9/GRAPHIC II VERSION OF SPACEWAR                                            PAGE  85

                                            HIGH CORE DEFINITIONS -- LAW/XCT TABLE

        004116      3360    STABLE  ...     
                    3361                    
                    3362            .DET    SAVE,OFF
                    3363    *       
                    3364    *       
                    3365    *       EDENIC HEAVENS
                    3366    *       
    004116  001777  3367            .DATA   001777,400561,001722,501515,001712,401677,001712,400105
    004126  001656  3368            .DATA   001656,400452,001441,400402,001410,401240,001357,400732
    004136  001267  3369            .DATA   001267,401247,001226,500414,001210,401723,001076,400472
    004146  001026  3370            .DATA   001026,501522,000734,401161,000712,500211,000706,401305
    004156  000655  3371            .DATA   000655,400402,000642,400411,000631,401654,000627,401075
    004166  000623  3372            .DATA   000623,501716,000560,400025,000547,401064,000451,401277
    004176  000404  3373            .DATA   000404,500662,000335,400336,000323,401266,000272,400233
    004206  000222  3374            .DATA   000222,400776,000174,501100,000165,400254,000164,401335
    004216  000157  3375            .DATA   000157,400120,000115,400031,000060,400454,000040,401302
    004226  000021  3376            .DATA   000021,501124
                    3377    *       
                    3378    *       
                    3379    *       LAW/XCT TABLE PROPER
                    3380    *       
    004230  777735  3381            .DATA   777735,401670,777713,401726,777700,400457,777657,401104
    004240  777651  3382            .DATA   777651,400011,777620,401307,777603,401326,777557,401437
    004250  777555  3383            .DATA   777555,400605,777536,400441,777530,400015,777512,401002
    004260  777444  3384            .DATA   777444,500432,777423,500345,777347,400666,777317,500306
    004270  777305  3385            .DATA   777305,401426,777266,401202,777261,401752,777202,400536
    004300  777171  3386            .DATA   777171,401315,777160,401306,777156,400516,777151,401717
    004310  777131  3387            .DATA   777131,401536,777110,401612,777101,401610,777073,401766
    004320  777072  3388            .DATA   777072,401623,777064,401536,777062,401512,777050,401546
    004330  777050  3389            .DATA   777050,501660,777047,501544,777034,401554,777021,400772
    004340  777011  3390            .DATA   777011,401515,776776,401342,776776,701563,776767,400657
    004350  776760  3391            .DATA   776760,401430,776753,401546,776752,400266,776734,400074
    004360  776703  3392            .DATA   776703,400662,776655,501232,776651,401307,776645,401174
    004370  776631  3393            .DATA   776631,400600,776623,501064,776621,401344,776611,401460
    004400  776572  3394            .DATA   776572,401044,776557,400337,776550,400531,776545,400064
    004410  776545  3395            .DATA   776545,401750,776533,401533,776504,500611,776476,401540
    004420  776473  3396            .DATA   776473,400466,776451,400357,776446,401077,776444,500215
    004430  776443  3397            .DATA   776443,400327,776435,700503,776414,500542,776377,400322
    004440  776370  3398            .DATA   776370,400032,776366,400765,776360,401117,776347,400514
    004450  776346  3399            .DATA   776346,500707,776345,401050,776344,601217,776331,401105
    004460  776331  3400            .DATA   776331,401761,776314,500046,776304,401206,776276,401645
    004470  776273  3401            .DATA   776273,500770,776272,400530,776263,500151,776255,401326
    004500  776254  3402            .DATA   776254,501341,776251,400567,776247,500570,776247,400620
    004510  776243  3403            .DATA   776243,600743,776242,401322,776240,501740,776224,400704
    004520  776223  3404            .DATA   776223,400533,776223,401135,776212,401567,776211,600722
    004530  776157  3405            .DATA   776157,400001,776143,500256,776140,600443,776132,401437
    004540  776111  3406            .DATA   776111,400045,776101,401716,776071,701250,776055,400275
    004550  776033  3407            .DATA   776033,400672,776021,401334,776017,400417,776012,401712
    004560  775766  3408            .DATA   775766,400254,775764,401520,775733,401504,775733,401560
    004570  775706  3409            .DATA   775706,400562,775677,400311,775627,600151,775626,401152
    004600  775574  3410            .DATA   775574,400626,775574,401716,775567,400541,775543,401250
    004610  775511  3411            .DATA   775511,601567,775507,400114,775500,400143,775472,400300
WAR         08/13/80    20:30:38    PDP-9/GRAPHIC II VERSION OF SPACEWAR                                            PAGE  86

                                            HIGH CORE DEFINITIONS -- LAW/XCT TABLE

    004620  775465  3412            .DATA   775465,401343,775445,401460,775435,501450,775427,700207
    004630  775414  3413            .DATA   775414,401071,775350,401457,775347,400067,775345,400361
    004640  775333  3414            .DATA   775333,400070,775331,400177,775265,400643,775264,401730
    004650  775256  3415            .DATA   775256,400240,775203,400770,775143,501574,775131,501770
    004660  775104  3416            .DATA   775104,400123,775056,501301,775050,401320,775040,401426
    004670  775000  3417            .DATA   775000,400011,774750,701175,774732,400454,774557,400144
    004700  774552  3418            .DATA   774552,400747,774545,401074,774500,400703,774472,400121
    004710  774457  3419            .DATA   774457,400340,774425,401330,774337,400656,774234,401212
    004720  774226  3420            .DATA   774226,401124,774201,400235,774177,401761,774174,401125
    004730  774170  3421            .DATA   774170,400544,774166,401645,774150,501232,774147,400324
    004740  774137  3422            .DATA   774137,401215,774067,501220,774047,401427,773713,401076
    004750  773652  3423            .DATA   773652,400371,773646,400460,773576,600505,773566,400713
    004760  773546  3424            .DATA   773546,400757,773502,401164,773471,400760,773465,400304
    004770  773463  3425            .DATA   773463,401354,773365,400271,773306,401302,773250,400342
    005000  773237  3426            .DATA   773237,501611,773233,401357,773232,401003,773230,701433
    005010  773211  3427            .DATA   773211,400362,773130,401707,773127,501717,773061,400214
    005020  773032  3428            .DATA   773032,400775,773015,401337,772653,500233,772561,400154
    005030  772547  3429            .DATA   772547,400730,772545,401727,772525,401263,772456,400005
    005040  772442  3430            .DATA   772442,501737,772441,501554,772422,400671,772403,400274
    005050  772371  3431            .DATA   772371,401226,772352,401374,772343,400172,772252,400455
    005060  772237  3432            .DATA   772237,400772,772162,400153,772155,401241,772141,401731
    005070  772132  3433            .DATA   772132,601530,772122,401065,772027,401243,771776,401323
    005100  771743  3434            .DATA   771743,500012,771702,500175,771653,400775,771646,401642
    005110  771563  3435            .DATA   771563,500225,771546,400234,771475,400526,771457,500753
    005120  771456  3436            .DATA   771456,401365,771347,400463,771337,501132,771314,401631
    005130  771272  3437            .DATA   771272,501406,771216,400154,771215,401634,771137,400154
    005140  771070  3438            .DATA   771070,700416,771054,400240,771021,400575,771004,401137
    005150  771001  3439            .DATA   771001,500776,770670,401631,770654,401563,770616,501656
    005160  770550  3440            .DATA   770550,401056,770453,401102,770451,400442,770427,400602
    005170  770425  3441            .DATA   770425,701700,770406,400332,770377,401576,770321,400727
    005200  770207  3442            .DATA   770207,401577,770205,401502,770175,400611,770156,401614
    005210  770152  3443            .DATA   770152,401065,770122,500234,770112,401674,770055,400646
    005220  770013  3444            .DATA   770013,401071,767732,400106,767675,500463,767534,400443
    005230  767525  3445            .DATA   767525,400267,767524,401367,767461,400110,767454,401707
    005240  767437  3446            .DATA   767437,501231,767422,401257,767422,501546,767403,401644
    005250  767402  3447            .DATA   767402,500671,767372,401155,767364,401744,767355,400212
    005260  767330  3448            .DATA   767330,401554,767324,400302,767311,500004,767260,400403
    005270  767254  3449            .DATA   767254,500103,767244,400060,767241,400053,767206,400113
    005300  767204  3450            .DATA   767204,400441,767166,500662,767137,500633,767111,401035
    005310  767106  3451            .DATA   767106,401671,767102,400075,767063,401505,767061,400141
    005320  767052  3452            .DATA   767052,400506,767031,400213,767026,12764,767026,501756
    005330  767025  3453            .DATA   767025,400034,767013,401412,766766,500424,766656,400417
    005340  766621  3454            .DATA   766621,401353,766574,401331,766520,401445,766473,500235
    005350  766433  3455            .DATA   766433,501512,766423,400770,766377,400042,766376,400336
    005360  766333  3456            .DATA   766333,400616,766332,401140,766250,601440,766237,500243
    005370  766234  3457            .DATA   766234,400511,766211,400334,766177,400024,766140,501077
    005400  766044  3458            .DATA   766044,500442,766032,400654,766032,401143,766030,401103
    005410  766030  3459            .DATA   766030,401575,766022,401036,765775,401071,765761,401306
    005420  765760  3460            .DATA   765760,501331,765745,401731,765723,400040,765645,401114
    005430  765644  3461            .DATA   765644,401763,765643,500676,765630,400464,765621,400053
    005440  765620  3462            .DATA   765620,401756,765571,400263,765526,400503,765424,401721
    005450  765421  3463            .DATA   765421,400622,765415,401633,765333,401135,765330,500035
WAR         08/13/80    20:30:38    PDP-9/GRAPHIC II VERSION OF SPACEWAR                                            PAGE  87

                                            HIGH CORE DEFINITIONS -- LAW/XCT TABLE

    005460  765306  3464            .DATA   765306,401524,765276,400572,765261,400016,765245,501470
    005470  765244  3465            .DATA   765244,500761,765224,500036,765146,401743,765117,400146
    005500  765117  3466            .DATA   765117,400220,765065,501102,765060,401003,765004,401243
    005510  764776  3467            .DATA   764776,401675,764766,400735,764737,401625,764732,401611
    005520  764676  3468            .DATA   764676,501354,764665,401640,764654,401656,764644,701304
    005530  764634  3469            .DATA   764634,401021,764621,401273,764613,401214,764565,501665
    005540  764461  3470            .DATA   764461,500747,764435,401523,764417,400334,764415,400334
    005550  764376  3471            .DATA   764376,400327,764375,500250,764321,400143,764263,401372
    005560  764246  3472            .DATA   764246,401506,764231,501504,764230,400737,764223,401733
    005570  764215  3473            .DATA   764215,401542,764170,401517,764145,401547,764144,400437
    005600  764143  3474            .DATA   764143,400605,764107,400453,764006,400063,763775,400157
    005610  763747  3475            .DATA   763747,400364,763740,401336,763710,401333,763701,401156
    005620  763640  3476            .DATA   763640,400167,763634,401671,763574,400006,763551,500567
    005630  763514  3477            .DATA   763514,400073,763506,400503,763472,400172,763454,400110
    005640  763440  3478            .DATA   763440,501326,763435,401600,763423,500207,763264,400704
    005650  763246  3479            .DATA   763246,500756,763246,401150,763244,400271,763214,501202
    005660  763150  3480            .DATA   763150,400503,763114,400725,763113,401412,763067,401024
    005670  763050  3481            .DATA   763050,401140,763043,500764,763031,400401,762776,400762
    005700  762732  3482            .DATA   762732,501353,762720,400110,762674,401412,762656,400277
    005710  762634  3483            .DATA   762634,400507,762621,500214,762614,401275,762533,401113
    005720  762526  3484            .DATA   762526,501516,762511,401312,762475,400022,762440,400552
    005730  762430  3485            .DATA   762430,400445,762420,401076,762414,400442,762357,400052
    005740  762336  3486            .DATA   762336,400036,762330,401020,762322,401206,762313,401426
    005750  762265  3487            .DATA   762265,400027,762216,401164,762204,400136,762202,401034
    005760  762177  3488            .DATA   762177,400250,762040,401220,762021,400553,762003,400151
                    3489                    
                    3490            .DET    RESTORE
                    3491                    
    005770  005770  3492    ENDTAB  ENDTAB                  END-OF-TABLE MARKER
WAR         08/13/80    20:30:38    PDP-9/GRAPHIC II VERSION OF SPACEWAR                                            PAGE  88

                                            ASSEMBLY CONTROL

                    3494    *       
                    3495    *       
                    3496    *       LITERAL POOL
                    3497    *       
    005771  003000  3498            .LIT    
    005772  000777
    005773  000001
    005774  300000
    005775  065040
    005776  400000
    005777  004115
    006000  040000
    006001  140000
    006002  174000
    006003  301760
    006004  301762
    006005  002000
    006006  301764
    006007  000200
    006010  000100
    006011  500000
    006012  600003
    006013  000117
    006014  777776
    006015  017777
    006016  741000
    006017  774125
    006020  774232
    006021  601235
    006022  000170
    006023  360000
    006024  401530
    006025  377777
    006026  000003
    006027  004000
    006030  000017
    006031  000520
    006032  777777
    006033  776777
    006034  767777
    006035  040006
    006036  660700
    006037  040007
    006040  004747
    006041  220000  
    006042  224040
    006043  004116
    006044  757777
    006045  602276
    006046  770000
    006047  302036
    006050  701530
WAR         08/13/80    20:30:38    PDP-9/GRAPHIC II VERSION OF SPACEWAR                                            PAGE  89

                                            ASSEMBLY CONTROL

    006051  010000
    006052  020000
    006053  200000
    006054  201000
    006055  100000
    006056  101000
    006057  600000
    006060  001000
    006061  740000
    006062  203572
    006063  203545
    006064  021570
    006065  000030
    006066  040005
    006067  602512
    006070  602524
    006071  000400
    006072  777744
    006073  660600
    006074  765252
    006075  737777
    006076  613331
    006077  001777
    006100  140001
    006101  303355
    006102  174001
    006103  303356
    006104  141000
    006105  243355
    006106  175000
    006107  243356
    006110  400040
    006111  370037  
    006112  000177
    006113  000072
    006114  000073
    006115  777720
    006116  601104
    006117  000000
    006120  000000
    006121  000000
    006122  000000
    006123  000000
                    3499    *       
                    3500    *       
                    3501    *       START OF SCOPE BUFFER
                    3502    *       
        006124      3503    SCBUF   ...     
WAR         08/13/80    20:30:38    PDP-9/GRAPHIC II VERSION OF SPACEWAR                                            PAGE  90

                                            ASSEMBLY CONTROL

        006124      3505            .END    START

    TRANSFER ADDRESS  600600  
WAR         08/13/80    20:30:38    PDP-9/GRAPHIC II VERSION OF SPACEWAR                                            PAGE  91

                                            CROSS REFERENCE TABLE

   220   1 DTAB      190     908
   243   1 FUEL      239     757
   242   1 ROLL      237
   247   1BLINT      247
   244   1BLNUM      241     766
   246   1BLTIM      245
   245   1BLVEL      243
   262   1BTIME      269
   254   1DTIME      257
   260   1FRICT      265
   240   1GRAVT      233
   263   1LTIME      271
   264   1RTIME      273
   251   1SHPSZ      251
   253   1STIME      255
   250   1SUNSZ      249
   241   1THRUS      235
   261   1TTIME      267
   255   1WAREA      259
   257   1WFACT      263
   252   1WTIME      253
   256   1WVELO      261
   320   2 DTAB      279
   343   2 FUEL      328     760
   342   2 ROLL      326
   347   2BLINT      336
   344   2BLNUM      330     769
   346   2BLTIM      334
   345   2BLVEL      332
   362   2BTIME      358
   354   2DTIME      346
   360   2FRICT      354
   340   2GRAVT      322
   363   2LTIME      360
   364   2RTIME      362
   351   2SHPSZ      340
   353   2STIME      344
   350   2SUNSZ      338
   341   2THRUS      324
   361   2TTIME      356
   355   2WAREA      348
   357   2WFACT      352
   352   2WTIME      342
   356   2WVELO      350
   420   3 DTAB      368
   443   3 FUEL      417     763
   442   3 ROLL      415
   447   3BLINT      425
   444   3BLNUM      419     772
   446   3BLTIM      423
   445   3BLVEL      421
   462   3BTIME      447
WAR         08/13/80    20:30:38    PDP-9/GRAPHIC II VERSION OF SPACEWAR                                            PAGE  92

                                            CROSS REFERENCE TABLE

   454   3DTIME      435
   460   3FRICT      443
   440   3GRAVT      411
   463   3LTIME      449
   464   3RTIME      451
   451   3SHPSZ      429
   453   3STIME      433
   450   3SUNSZ      427
   441   3THRUS      413
   461   3TTIME      445
   455   3WAREA      437
   457   3WFACT      441
   452   3WTIME      431
   456   3WVELO      439
   700   AGAIN       658      84    1043    2913    2930
  1005   AGAIN1      775     755
  2134   BEFAIR     1753    1744
  2124   BEJUST     1739    1727
  2144   BEKIND     1768    1758
  2155   BENICE     1783    1773
   547   BLINT       514    1989
   544   BLNUM       508
  1542   BLOW1      1324    1345
  1530   BLOWUP     1311    1206    1236    1702
   546   BLTIM       512    1986
   545   BLVEL       510    1977    1982
   562   BTIME       536    1301
  1570   BULLET     1357    1947
  1104   BUMP        883     831    3087
  1235   BUMP1      1049    1041    1191    1193    1196
  1253   BUMP2      1070    1092    1100
  1300   BUMP3      1096    1076
  1301   BUMP4      1098    1084
  1303   BUMP5      1105    1072
  3415   BUTINS     3028    1579    1594    1597    1721    1802    1845    1913
  3357   BUTTIN     2977    1560    1566    3015
  3414   BUTTON     3026     897    2982
  2215   CALANG     1833    1824
  2166   CALROL     1799    1788
  3327   CENTER     2918      94
  3447   CHAR       3066    3031    3043    3048    3060
     7   CLOCK        45     884
  2652   COS        2322    2055    2184    2223
  3264   COSINE     2857    1853    1886    1966    1976    2053    2070    2814    2835    2844    2848
  2657   CSMSIN     2330    2068    2240
  1103   DAMSET      877     837     871
  3451   DATUM      3069    3045    3049    3056    3057
  1361   DONE       1169     940    1194
  2457   DRAW1      2094    2158
  2462   DRAW2      2099    2092
  2473   DRAW3      2113    2121
  2546   DRAWD      2200    2143    2165
WAR         08/13/80    20:30:38    PDP-9/GRAPHIC II VERSION OF SPACEWAR                                            PAGE  93

                                            CROSS REFERENCE TABLE

  2572   DRAWDL     2235    2147    2173
  2616   DRAWDR     2270    2151    2169
  2246   DRAWJ      1875    1582    1864
  2265   DRAWJ1     1896    1907
  2560   DRAWL      2218    2145    2171
  2512   DRAWLH     2141    2083
  2477   DRAWN      2119    2195    2212    2230    2247    2265    2282    2297    2312
  2244   DRAWP      1869    1851
  2604   DRAWR      2253    2149    2167
  2524   DRAWRH     2163    2155
  2637   DRAWRP     2302    2289
  2414   DRAWS      2044    1872    2177
  2630   DRAWSP     2288    2153    2175
  2660   DRAWT      2332    2084    2126    2156    2332
  2534   DRAWU      2183    2141    2163
  2511   DRAWX      2136    2127
   520   DTAB        457     913     916    1148    1151    1254
   554   DTIME       524    1693
  1232   ENDGAM     1040    1030
  5770   ENDTAB     3492    1544    3492
  2100   FATALW     1702    1673
  2276   FIRE       1913    1581
  2307   FIRE1      1929    1941
  2310   FIRE2      1931    1929    1936    1948    1950    1964    1987
  2317   FIRE3      1947    1934
  2373   FRIC1      2015    2003
  2405   FRIC2      2033    2004
   560   FRICT       532    2002
   543   FUEL        506
  3537   GAMTIM     3162     705    1040
  1315   GOTOIT     1121    1055    1245    1309
  3002   GRAV       2549    1357    1839    2560    2686
  3011   GRAV1      2565
  3016   GRAV2      2572    2567
  3027   GRAV3      2588    2583
  3057   GRAV4      2630    2621
  3076   GRAV5      2655    2632
  3101   GRAV6      2660    2643
  3110   GRAV7      2673    2633
  3113   GRAV8      2678    2644
   540   GRAVT       500    2641
  3410   GROWTH     3020    3013
  3527   HANDI      3141     910    1132    1143    1145
  3452   INT        3071      35
  3463   INT1       3081    3076
  3474   INT2       3092    3086
  3500   INT3       3097    3093
  3504   INT4       3102    3098
  3510   INT5       3107    3103
  3511   INT6       3109    3041    3051    3063
  3512   INT7       3111    3083
  3513   INT8       3113    3079
WAR         08/13/80    20:30:38    PDP-9/GRAPHIC II VERSION OF SPACEWAR                                            PAGE  94

                                            CROSS REFERENCE TABLE

  3514   INT9       3115    3090    3095
  3517   INTA       3120    3071    3115
  1432   KILL       1224    1115    1250    1259
  1441   KILL1      1234    1227    1384
  3450   LOC        3068    3053    3054    3058    3062
   563   LTIME       538    1269
  1453   MAIM       1247    1218
  1457   MAIM1      1252    1264    1287    1299
  1477   MAIM2      1274    1267
  1504   MAIM3      1282    1275
  1514   MAIM4      1294    1283
  1523   MAIM5      1304    1272    1280    1292    1295
  2654   MCOS       2325    1889    1897    2058    2064    2201    2258
  2653   MSIN       2324    1894    1901    2051    2060    2205    2219
  2655   MSNMCS     2327    2061    2236    2275
  1320   NEXT       1125    1052    1348    1351    1382    1618    1625    1643    1661    1696    1711    1712    1922
                            1939    1993    1994
  1331   NEXT1      1137    1129
  1337   NEXT2      1145    1135
  1351   NEXT3      1159    1133    1140
  3536   NSHIP      3157     691    1028    1220    1231    1710
    25   NUMBLT       25      27
    30   NUMOBJ       27     951    1067    3179    3183    3188    3196    3204    3209    3214    3219
     3   NUMSHP       23      27     945    1127    1938    3225    3233    3238    3246    3254    3262    3270    3276
                            3281    3286    3291    3299    3304    3309    3314
  3534   OBJCNT     3154     952    1167
   325   ODTLEN     3319     661
  3526   OFFSET     3136     554     564     570     928    1424    1426
  3436   PAT1       3053    3034
  3440   PAT2       3056    3037
  3416   PATCH      3030    3100    3105
  3524   PBUFF1     3133     562
  3525   PBUFF2     3134     565     594     597
     0   PI           34    3117
  1102   PICSET      876     839     868
  2036   PREVUE     1649    1627
  3521   PSBUF1     3128     653     654    1444    1473    1484    1485    1487    1488    1490    1491    1493    1499
                            1500
  3522   PSBUF2     3129     649     650    1456    1521    1522    1526    1527    1531    1532    1534    1540    1541
  3520   PSCBUF     3126     556     572     576     590     593     603     618     652    1421    1463    1498    1539
                            3111
  3542   PSTABL     3173     646    1508    1515    1517    1518    1543    1548
  3265   RANDOM     2859     729    1252    1324    1401    1633    1638    1667    1678    1682    1881    2867    2877
                            2882    2897    2905
  3274   RND        2870    1330    1414    1686    2862    2864    2865    3072
  3275   RNDPOS     2875     711     716     721    2887    2891
  3312   RNDSUN     2897      89
  2176   ROLFAC     1809    1800
   542   ROLL        504    1799
   564   RTIME       540     916    1151    1277
  4013   S1ANGL     3226     730
  4024   S1BULL     3247     748     767    1035
WAR         08/13/80    20:30:38    PDP-9/GRAPHIC II VERSION OF SPACEWAR                                            PAGE  95

                                            CROSS REFERENCE TABLE

  4051   S1DAMS     3292     696
  4021   S1FUEL     3239     743     758
  2701   S1PIC      2389     810    2338    2362
  2711   S1PICD     2408     822    2339    2363
  4032   S1PICN     3263     823
  4027   S1PICP     3255     811
  1760   S1SHIP     1560     671
  3543   S1TRAN     3180     672
  3573   S1XLOC     3189     712
  3623   S1YLOC     3197     714
  4014   S2ANGL     3227     733
  4025   S2BULL     3248     749     770    1036
  4052   S2DAMS     3293     697
  4022   S2FUEL     3240     744     761
  2717   S2PIC      2426     813    2344    2368
  2727   S2PICD     2445     825    2345    2369
  4033   S2PICN     3264     826
  4030   S2PICP     3256     814
  1762   S2SHIP     1566     674
  3544   S2TRAN     3181     675
  3574   S2XLOC     3190     717
  3624   S2YLOC     3198     719
  4015   S3ANGL     3228     736
  4026   S3BULL     3249     750     773     778    1037
  4053   S3DAMS     3294     698
  4023   S3FUEL     3241     745     764
  2734   S3PIC      2461     816    2350    2374
  2746   S3PICD     2484     828    2351    2375
  4034   S3PICN     3265     829
  4031   S3PICP     3257     817
  1764   S3SHIP     1572     682
  3545   S3TRAN     3182     683
  3575   S3XLOC     3191     722
  3625   S3YLOC     3199     724
  2755   S4PIC      2504    2356    2380
  2771   S4PICD     2531    2357    2381
  2661   SBANK      2338     841
  3214   SC1        2784    2777
  3224   SC2        2801    2788    2820
  3231   SC3        2809    2778
  3242   SC4        2828    2789
  3245   SC5        2834    2761    2836
  3254   SC6        2842    2747
  3260   SC7        2847    2754
  6124   SCBUF      3503    3126
  3340   SCOPE      2936    1342    1376    1396    1409    1658    1904    2193    2210    2228    2245    2263    2280
                            2968
  3344   SCOPEX     2950    2903    2922
  3350   SCOPEY     2961    2911    2928
  1056   SEL1        844     848
  1070   SEL2        859     865
  1050   SELECT      835     792     797     805     873
WAR         08/13/80    20:30:38    PDP-9/GRAPHIC II VERSION OF SPACEWAR                                            PAGE  96

                                            CROSS REFERENCE TABLE

  1041   SETUD1      822     791
  1043   SETUD2      825     796
  1045   SETUD3      828     804
  1033   SETUP1      810     787     789     800
  1035   SETUP2      813     794
  1037   SETUP3      816     802
  3535   SHPCNT     3155     946    1189
   551   SHPSZ       518    1082    1090
  2651   SIN        2321    2048    2063    2188    2254
  3161   SINCOS     2740    1837    2853
  3263   SINE       2856    1858    1891    1971    1981    2046    2075    2742    2749    2756    2763    2813    2838
                            2839    2843
  2656   SINMCS     2329    2065    2271
  4077   SQANGL     3337     980    1173    1687    1833    1835
  4113   SQBTIM     3356    1016    1185    1302    1757
  4102   SQBULL     3342     989    1176    1229    1297    1708    1920    1992
  4111   SQDAMS     3353    1010    1183    1261    1304    1307    1595    1739    1746    1748    1753    1760    1762
                            1768    1775    1778    1783    1790    1793    1821    2089    2094
  4076   SQDIST     3335     977    1165    2701    2715    2719    2722    2725    2734
  4101   SQFUEL     3341     986    1175    1285    1849    1866
  4107   SQINVF     3350    1004    1181    1732    1733    2191    2208    2226    2243    2261    2278
  4110   SQINVT     3351    1007    1182    1718    1725    1730
  4114   SQLTIM     3357    1019    1186    1270    1772
  4104   SQPICN     3345     995    1178    2101
  4103   SQPICP     3344     992    1177    2103
  4100   SQROLL     3339     983    1174    1691    1814    1815    1828    1834
  3121   SQRT       2692    2619    2716    2720    2735
  3132   SQRT1      2706    2732
  3134   SQRT2      2709    2702    2726
  3147   SQRT3      2725    2738
  3155   SQRT4      2734    2695
  3157   SQRT5      2737    2712
  4115   SQRTIM     3358    1022    1187    1278    1787
  4075   SQTIME     3333     974    1164    1243    1347    1381    1584    1616    1624    1631    1660    1706    1917
                            1990
  4070   SQTRAN     3325     959    1049    1057    1121    1125    1159    1224    1234    1237    1311    1350    1609
                            1613    1628    1676    1703
  4112   SQTTIM     3355    1013    1184    1290    1743
  4106   SQWFAC     3348    1001    1180    1663    1665    1671
  4105   SQWTIM     3347     998    1179    1587    1605    1610    1675    1694
  4071   SQXLOC     3327     962    1060    1080    1105    1160    1333    1367    1635    1636    1652    1968    2021
                            2022    2072    2565    2569    2650
  4073   SQXVEL     3330     968    1162    1680    1978    2011    2018
  4072   SQYLOC     3328     965    1063    1088    1109    1161    1339    1370    1640    1641    1655    1973    2039
                            2040    2077    2581    2585    2668
  4074   SQYVEL     3331     971    1163    1684    1983    2029    2036
  3541   SRANGE     3172     656    1441    1509    1550    1552
  4116   STABLE     3360     621    1547
  1650   STARS1     1450    1461
  1653   STARS2     1455    1467
  1665   STARS3     1473    1457    1496    1502
  1713   STARS4     1508    1480    1546    1554
WAR         08/13/80    20:30:38    PDP-9/GRAPHIC II VERSION OF SPACEWAR                                            PAGE  97

                                            CROSS REFERENCE TABLE

  1746   STARS5     1543    1537
   600   START       547    3069    3505
   650   START1      624     643
   667   START2      645     626
   553   STIME       522    1630
  3540   STIMER     3167     616    1435    1439
  3523   STREND     3131     559     598     930    1428    1429    1459    1494    1535
   550   SUNSZ       516    1113
  3413   SWITCH     3025     678     752     775     784     900    1137    1247    1572    1590    1817    2557
  4013   SXANGL     3225     979    3226    3227    3228
  4057   SXBTIM     3304    1015
  4024   SXBULL     3246     988    3247    3248    3249
  4051   SXDAMS     3291    1009    3292    3293    3294
  3763   SXDIST     3219     976
  4021   SXFUEL     3238     985    3239    3240    3241
  4043   SXINVF     3281    1003
  4046   SXINVT     3286    1006
  4062   SXLTIM     3309    1018
  4032   SXPICN     3262     994    3263    3264    3265
  4027   SXPICP     3254     991    3255    3256    3257
  4016   SXROLL     3233     982
  4065   SXRTIM     3314    1021
  1767   SXSHIP     1579    1561    1567
  3733   SXTIME     3214     973    1201    1963
  3543   SXTRAN     3179     658     958    1127    1201    1938    1951    3180    3181    3182    3183    3319
  4054   SXTTIM     3299    1012
  4040   SXWFAC     3276    1000
  4035   SXWTIM     3270     997
  3573   SXXLOC     3188     961    1951    1954    3189    3190    3191
  3653   SXXVEL     3204     967    1957    1960
  3623   SXYLOC     3196     964    1067    1954    1957    3197    3198    3199
  3703   SXYVEL     3209     970    1960    1963
  3530   TEMP0      3146     573     582     628     635     662     665     853     856     917     921    1068    1070
                            1107    1111    1122    1123    1152    1156    1199    1204    1207    1215    1255    1256
                            1305    1314    1326    1474    1475    1477    1513    1524    1884    1906    1952    1969
                            2087    2288    2292    2303    2310    2574    2601    2697    2704    2730    2880    2885
                            2989    2991    2997    3010
  3531   TEMP1      3147    1202    1213    1319    1344    1955    1974    2295    2306    2576    2597    2699    2728
                            2883    2889    2995    2999    3003    3004    3009
  3532   TEMP2      3148    1328    1332    1338    1958    1979    2117    2119    2590    2602    2604    2614    2617
                            2626
  3533   TEMP3      3149    1961    1984    2114    2123    2130    2609    2635
     3   THREE        20     889     890    1436    1511    3068    3088
   541   THRUS       502    1854    1859
  3572   TRNEND     3183    1927
   561   TTIME       534    1289
  1604   TWINKL     1390    1171
  2363   UPDATE     2000    1362    1869    2042
  2017   VANISH     1624    1612
  2110   VISIBL     1718    1607
   555   WAREA       526    1634    1639
   557   WFACT       530    1664
WAR         08/13/80    20:30:38    PDP-9/GRAPHIC II VERSION OF SPACEWAR                                            PAGE  98

                                            CROSS REFERENCE TABLE

   552   WTIME       520    1615
   556   WVELO       528    1679    1683
   120   X DTAB      100    1131
   143   X FUEL      150     742
   142   X ROLL      148
    10   X0           50     934    1322    1374    1391    1399    1404    1407    1412    1417    1422    1650    1879
                            2081    2952    2963
    11   X1           51     619     633     637     641     648    1445    1450    1452    1453    1455    1464    1465
    12   X2           52     622     624     630     645
    13   X3           53
    14   X4           54
    15   X5           55     577     581     659     664    1058    1074    1198    2105    2113
    16   X6           56     911     919    1061    1078    1096    1146    1154
    17   X7           57     842     861     862     867     870     914     920    1064    1086    1098    1149    1155
   147   XBLINT      158
   144   XBLNUM      152     747
   146   XBLTIM      156     703
   145   XBLVEL      154
   162   XBTIME      180
   154   XDTIME      168
   160   XFRICT      176
  2647   XFRONT     2318    2073    2107
  3117   XGRAV      2689    1855    1856    2010    2554    2663
   140   XGRAVT      144
  3353   XLOC       2971    1334    1368    1393    1653    1896    1898    2108    2183    2185    2200    2202    2218
                            2220    2235    2237    2253    2255    2270    2272    2291    2304    2946
   163   XLTIME      182
  3355   XPOINT     2974    2900    2902    2919    2921    2950
   164   XRTIME      184
   151   XSHPSZ      162
   153   XSTIME      166
   150   XSUNSZ      160
   141   XTHRUS      146
   161   XTTIME      178
   155   XWAREA      170
   157   XWFACT      174
   152   XWTIME      164
   156   XWVELO      172
  2650   YFRONT     2319    2078    2110
  3120   YGRAV      2690    1860    1861    2028    2555    2681
  3354   YLOC       2972    1340    1371    1394    1656    1900    1902    2111    2187    2189    2204    2206    2222
                            2224    2239    2241    2257    2259    2274    2276    2294    2307    2957
  3356   YPOINT     2975    2908    2910    2925    2927    2961
  1407   ZONK       1198    1094
WAR         08/13/80    20:30:38    PDP-9/GRAPHIC II VERSION OF SPACEWAR                                            PAGE  99

                                            

THERE WERE    NO  WARNING FLAGS IN THIS ASSEMBLY
  6124  IS THE NEXT AVAILABLE LOCATION
 32000  LOCATIONS USED IN THIS ASSEMBLY
